
raspi.elf:     file format elf32-avr

Sections:
Idx Name          Size      VMA       LMA       File off  Algn
  0 .data         000000ba  00800100  000011d8  0000126c  2**0
                  CONTENTS, ALLOC, LOAD, DATA
  1 .text         000011d8  00000000  00000000  00000094  2**1
                  CONTENTS, ALLOC, LOAD, READONLY, CODE
  2 .bss          0000031d  008001ba  008001ba  00001326  2**0
                  ALLOC
  3 .stab         00000abc  00000000  00000000  00001328  2**2
                  CONTENTS, READONLY, DEBUGGING
  4 .stabstr      00000298  00000000  00000000  00001de4  2**0
                  CONTENTS, READONLY, DEBUGGING
  5 .comment      0000002f  00000000  00000000  0000207c  2**0
                  CONTENTS, READONLY
  6 .debug_aranges 00000198  00000000  00000000  000020ab  2**0
                  CONTENTS, READONLY, DEBUGGING
  7 .debug_info   00001679  00000000  00000000  00002243  2**0
                  CONTENTS, READONLY, DEBUGGING
  8 .debug_abbrev 0000044c  00000000  00000000  000038bc  2**0
                  CONTENTS, READONLY, DEBUGGING
  9 .debug_line   00000935  00000000  00000000  00003d08  2**0
                  CONTENTS, READONLY, DEBUGGING
 10 .debug_frame  0000053c  00000000  00000000  00004640  2**2
                  CONTENTS, READONLY, DEBUGGING
 11 .debug_str    000005f6  00000000  00000000  00004b7c  2**0
                  CONTENTS, READONLY, DEBUGGING
 12 .debug_loc    000015f4  00000000  00000000  00005172  2**0
                  CONTENTS, READONLY, DEBUGGING
 13 .debug_ranges 00000190  00000000  00000000  00006766  2**0
                  CONTENTS, READONLY, DEBUGGING

Disassembly of section .text:

00000000 <__vectors>:
       0:	19 c0       	rjmp	.+50     	; 0x34 <__ctors_end>
       2:	33 c0       	rjmp	.+102    	; 0x6a <__bad_interrupt>
       4:	32 c0       	rjmp	.+100    	; 0x6a <__bad_interrupt>
       6:	31 c0       	rjmp	.+98     	; 0x6a <__bad_interrupt>
       8:	30 c0       	rjmp	.+96     	; 0x6a <__bad_interrupt>
       a:	2f c0       	rjmp	.+94     	; 0x6a <__bad_interrupt>
       c:	2e c0       	rjmp	.+92     	; 0x6a <__bad_interrupt>
       e:	02 c6       	rjmp	.+3076   	; 0xc14 <__vector_7>
      10:	2c c0       	rjmp	.+88     	; 0x6a <__bad_interrupt>
      12:	2b c0       	rjmp	.+86     	; 0x6a <__bad_interrupt>
      14:	2b c0       	rjmp	.+86     	; 0x6c <__vector_10>
      16:	29 c0       	rjmp	.+82     	; 0x6a <__bad_interrupt>
      18:	28 c0       	rjmp	.+80     	; 0x6a <__bad_interrupt>
      1a:	8f c3       	rjmp	.+1822   	; 0x73a <__vector_13>
      1c:	19 c3       	rjmp	.+1586   	; 0x650 <__vector_14>
      1e:	25 c0       	rjmp	.+74     	; 0x6a <__bad_interrupt>
      20:	24 c0       	rjmp	.+72     	; 0x6a <__bad_interrupt>
      22:	23 c0       	rjmp	.+70     	; 0x6a <__bad_interrupt>
      24:	cc c1       	rjmp	.+920    	; 0x3be <__vector_18>
      26:	21 c0       	rjmp	.+66     	; 0x6a <__bad_interrupt>
      28:	52 c1       	rjmp	.+676    	; 0x2ce <__vector_20>
      2a:	1f c0       	rjmp	.+62     	; 0x6a <__bad_interrupt>
      2c:	1e c0       	rjmp	.+60     	; 0x6a <__bad_interrupt>
      2e:	1d c0       	rjmp	.+58     	; 0x6a <__bad_interrupt>
      30:	1c c0       	rjmp	.+56     	; 0x6a <__bad_interrupt>
      32:	1b c0       	rjmp	.+54     	; 0x6a <__bad_interrupt>

00000034 <__ctors_end>:
      34:	11 24       	eor	r1, r1
      36:	1f be       	out	0x3f, r1	; 63
      38:	cf ef       	ldi	r28, 0xFF	; 255
      3a:	d4 e0       	ldi	r29, 0x04	; 4
      3c:	de bf       	out	0x3e, r29	; 62
      3e:	cd bf       	out	0x3d, r28	; 61

00000040 <__do_copy_data>:
      40:	11 e0       	ldi	r17, 0x01	; 1
      42:	a0 e0       	ldi	r26, 0x00	; 0
      44:	b1 e0       	ldi	r27, 0x01	; 1
      46:	e8 ed       	ldi	r30, 0xD8	; 216
      48:	f1 e1       	ldi	r31, 0x11	; 17
      4a:	02 c0       	rjmp	.+4      	; 0x50 <__do_copy_data+0x10>
      4c:	05 90       	lpm	r0, Z+
      4e:	0d 92       	st	X+, r0
      50:	aa 3b       	cpi	r26, 0xBA	; 186
      52:	b1 07       	cpc	r27, r17
      54:	d9 f7       	brne	.-10     	; 0x4c <__do_copy_data+0xc>

00000056 <__do_clear_bss>:
      56:	24 e0       	ldi	r18, 0x04	; 4
      58:	aa eb       	ldi	r26, 0xBA	; 186
      5a:	b1 e0       	ldi	r27, 0x01	; 1
      5c:	01 c0       	rjmp	.+2      	; 0x60 <.do_clear_bss_start>

0000005e <.do_clear_bss_loop>:
      5e:	1d 92       	st	X+, r1

00000060 <.do_clear_bss_start>:
      60:	a7 3d       	cpi	r26, 0xD7	; 215
      62:	b2 07       	cpc	r27, r18
      64:	e1 f7       	brne	.-8      	; 0x5e <.do_clear_bss_loop>
      66:	44 d6       	rcall	.+3208   	; 0xcf0 <main>
      68:	b5 c8       	rjmp	.-3734   	; 0xfffff1d4 <__eeprom_end+0xff7ef1d4>

0000006a <__bad_interrupt>:
      6a:	ca cf       	rjmp	.-108    	; 0x0 <__vectors>

0000006c <__vector_10>:
	ICR1 = period;
	OCR1B = period / 2;
	wait(10);
	sbi(TCCR1A,5);
	wait(10);
	for(int i=0;i<ms;i++) wait(1);
      6c:	1f 92       	push	r1
      6e:	0f 92       	push	r0
      70:	0f b6       	in	r0, 0x3f	; 63
	cbi(TCCR1A,5);
      72:	0f 92       	push	r0
      74:	11 24       	eor	r1, r1
      76:	2f 93       	push	r18
      78:	8f 93       	push	r24
      7a:	9f 93       	push	r25
	IR_initialize(0);
      7c:	ef 93       	push	r30
      7e:	ff 93       	push	r31
}
      80:	80 91 ca 01 	lds	r24, 0x01CA
      84:	81 11       	cpse	r24, r1
      86:	20 c0       	rjmp	.+64     	; 0xc8 <__vector_10+0x5c>
      88:	81 e0       	ldi	r24, 0x01	; 1
	}
}

ISR ( TIMER1_CAPT_vect ){
	if(IR_isSending) return;
	IR_isReceiving = 1;
      8a:	80 93 cb 01 	sts	0x01CB, r24
	tbi(CAP_CONTROL_B,ICES1);
      8e:	e1 e8       	ldi	r30, 0x81	; 129
      90:	f0 e0       	ldi	r31, 0x00	; 0
      92:	90 81       	ld	r25, Z
      94:	80 e4       	ldi	r24, 0x40	; 64
      96:	89 27       	eor	r24, r25
      98:	80 83       	st	Z, r24
	//sbi(PORTD,PD7);
	//sbi(PORTD,PD7);
	unsigned int span = CAP_PERIOD;
      9a:	80 91 86 00 	lds	r24, 0x0086
      9e:	90 91 87 00 	lds	r25, 0x0087
	TCNT1 = 0;
      a2:	10 92 85 00 	sts	0x0085, r1
      a6:	10 92 84 00 	sts	0x0084, r1
	if(span != 0) IR_receive_raw[IR_receivecount++] = span;
      aa:	00 97       	sbiw	r24, 0x00	; 0
      ac:	69 f0       	breq	.+26     	; 0xc8 <__vector_10+0x5c>
      ae:	20 91 d1 01 	lds	r18, 0x01D1
      b2:	e2 2f       	mov	r30, r18
      b4:	f0 e0       	ldi	r31, 0x00	; 0
      b6:	ee 0f       	add	r30, r30
      b8:	ff 1f       	adc	r31, r31
      ba:	eb 52       	subi	r30, 0x2B	; 43
      bc:	fd 4f       	sbci	r31, 0xFD	; 253
      be:	91 83       	std	Z+1, r25	; 0x01
      c0:	80 83       	st	Z, r24
      c2:	2f 5f       	subi	r18, 0xFF	; 255
      c4:	20 93 d1 01 	sts	0x01D1, r18
	//sendStringLine(itoa(span,&ch,10));
}
      c8:	ff 91       	pop	r31
      ca:	ef 91       	pop	r30
      cc:	9f 91       	pop	r25
      ce:	8f 91       	pop	r24
      d0:	2f 91       	pop	r18
      d2:	0f 90       	pop	r0
      d4:	0f be       	out	0x3f, r0	; 63
      d6:	0f 90       	pop	r0
      d8:	1f 90       	pop	r1
      da:	18 95       	reti

000000dc <IR_initialize>:
	}
}

//mode:0=receive 1=send
void IR_initialize(char mode){
	if(IR_isReceiving | IR_isSending) return;
      dc:	90 91 cb 01 	lds	r25, 0x01CB
      e0:	20 91 ca 01 	lds	r18, 0x01CA
      e4:	92 2b       	or	r25, r18
      e6:	09 f0       	breq	.+2      	; 0xea <IR_initialize+0xe>
      e8:	4b c0       	rjmp	.+150    	; 0x180 <IR_initialize+0xa4>
	IR_onInitialize();
	TIMER_CONTROL_A = 0b00000010;//OC0A切断 CTC
      ea:	92 e0       	ldi	r25, 0x02	; 2
      ec:	94 bd       	out	0x24, r25	; 36
	TIMER_CONTROL_B = 0b00000010;//1/8 8μs/1カウント
      ee:	95 bd       	out	0x25, r25	; 37
	TIMER_COMP = IR_T;
      f0:	96 e4       	ldi	r25, 0x46	; 70
      f2:	97 bd       	out	0x27, r25	; 39
	
	sbi(IR_LED_DDR,IR_LED_PIN);//output
      f4:	21 9a       	sbi	0x04, 1	; 4
	cbi(IR_LED_PORT,IR_LED_PIN);
      f6:	29 98       	cbi	0x05, 1	; 5
	
	if(mode){
      f8:	88 23       	and	r24, r24
      fa:	81 f1       	breq	.+96     	; 0x15c <IR_initialize+0x80>
		if(IR_isReceiving) return;
      fc:	80 91 cb 01 	lds	r24, 0x01CB
     100:	81 11       	cpse	r24, r1
     102:	3e c0       	rjmp	.+124    	; 0x180 <IR_initialize+0xa4>
		sbi(PRR,PRTIM1);//TIMER1停止
     104:	e4 e6       	ldi	r30, 0x64	; 100
     106:	f0 e0       	ldi	r31, 0x00	; 0
     108:	80 81       	ld	r24, Z
     10a:	88 60       	ori	r24, 0x08	; 8
     10c:	80 83       	st	Z, r24
		cbi(PRR,PRTIM1);
     10e:	80 81       	ld	r24, Z
     110:	87 7f       	andi	r24, 0xF7	; 247
     112:	80 83       	st	Z, r24
		sbi(PWM_CONTROL_C,FOC1A);
     114:	e2 e8       	ldi	r30, 0x82	; 130
     116:	f0 e0       	ldi	r31, 0x00	; 0
     118:	80 81       	ld	r24, Z
     11a:	80 68       	ori	r24, 0x80	; 128
     11c:	80 83       	st	Z, r24
		CAP_INTERRUPT = 0;
     11e:	10 92 6f 00 	sts	0x006F, r1
		PWM_CONTROL_A = 0;
     122:	e0 e8       	ldi	r30, 0x80	; 128
     124:	f0 e0       	ldi	r31, 0x00	; 0
     126:	10 82       	st	Z, r1
		PWM_CONTROL_B = 0;
     128:	a1 e8       	ldi	r26, 0x81	; 129
     12a:	b0 e0       	ldi	r27, 0x00	; 0
     12c:	1c 92       	st	X, r1
		PWM_CONTROL_A = 0b00000010;
     12e:	82 e0       	ldi	r24, 0x02	; 2
     130:	80 83       	st	Z, r24
		PWM_CONTROL_B = 0b00011001;
     132:	89 e1       	ldi	r24, 0x19	; 25
     134:	8c 93       	st	X, r24
		PWM_TOP = IR_CAREER;
     136:	8a e1       	ldi	r24, 0x1A	; 26
     138:	90 e0       	ldi	r25, 0x00	; 0
     13a:	90 93 87 00 	sts	0x0087, r25
     13e:	80 93 86 00 	sts	0x0086, r24
		PWM_COMP = IR_CAREER;
     142:	8a e1       	ldi	r24, 0x1A	; 26
     144:	80 93 88 00 	sts	0x0088, r24
		sbi(PWM_CONTROL_A,7);
     148:	80 81       	ld	r24, Z
     14a:	80 68       	ori	r24, 0x80	; 128
     14c:	80 83       	st	Z, r24
	#else
		//round up by default
		__ticks_dc = (uint32_t)(ceil(fabs(__tmp)));
	#endif

	__builtin_avr_delay_cycles(__ticks_dc);
     14e:	87 ea       	ldi	r24, 0xA7	; 167
     150:	91 e6       	ldi	r25, 0x61	; 97
     152:	01 97       	sbiw	r24, 0x01	; 1
     154:	f1 f7       	brne	.-4      	; 0x152 <IR_initialize+0x76>
     156:	00 c0       	rjmp	.+0      	; 0x158 <IR_initialize+0x7c>
     158:	00 00       	nop
     15a:	08 95       	ret
		wait(100);
	}
	else{
		if(IR_isSending) return;
     15c:	80 91 ca 01 	lds	r24, 0x01CA
     160:	81 11       	cpse	r24, r1
     162:	0e c0       	rjmp	.+28     	; 0x180 <IR_initialize+0xa4>
		CAP_CONTROL_A = 0b00000000;
     164:	10 92 80 00 	sts	0x0080, r1
		CAP_CONTROL_B = 0b10000010;//立下り割り込み 1/8
     168:	82 e8       	ldi	r24, 0x82	; 130
     16a:	80 93 81 00 	sts	0x0081, r24
		CAP_INTERRUPT = 0b00100001;
     16e:	81 e2       	ldi	r24, 0x21	; 33
     170:	80 93 6f 00 	sts	0x006F, r24
		sbi(CAP_CONTROL_C,FOC1A);
     174:	e2 e8       	ldi	r30, 0x82	; 130
     176:	f0 e0       	ldi	r31, 0x00	; 0
     178:	80 81       	ld	r24, Z
     17a:	80 68       	ori	r24, 0x80	; 128
     17c:	80 83       	st	Z, r24
		cbi(CAP_DDR,CAP_PIN);//input
     17e:	20 98       	cbi	0x04, 0	; 4
     180:	08 95       	ret

00000182 <add_data_raw>:
//IR_data一個の構造
//0ビット目でHIGHかLOWか
//残り7ビットでその状態の長さを表す
//ex) 0b00000100 LOWの状態を2カウント続ける　0b00000011 HIGHの状態を1カウント続ける

int add_data_raw(char mvalue,int *count,char length){
     182:	fb 01       	movw	r30, r22
	char lengthnumber; char rest;//8ビットカウンタ　1MHz 1/8分周より　2048μsまでしか測れない
	if(length > 3){ lengthnumber = length / 3; rest = length % 3 ;}
     184:	44 30       	cpi	r20, 0x04	; 4
     186:	68 f0       	brcs	.+26     	; 0x1a2 <add_data_raw+0x20>
     188:	5b ea       	ldi	r21, 0xAB	; 171
     18a:	45 9f       	mul	r20, r21
     18c:	51 2d       	mov	r21, r1
     18e:	11 24       	eor	r1, r1
     190:	56 95       	lsr	r21
     192:	95 2f       	mov	r25, r21
     194:	99 0f       	add	r25, r25
     196:	95 0f       	add	r25, r21
     198:	49 1b       	sub	r20, r25
	else if(length == 0) return *count;
	else {lengthnumber = 0; rest = length;}
		
	mvalue &= 0b00000001;//2以上の場合は1に
     19a:	81 70       	andi	r24, 0x01	; 1
	for (char i=0;i < lengthnumber;i++){
     19c:	51 11       	cpse	r21, r1
     19e:	06 c0       	rjmp	.+12     	; 0x1ac <add_data_raw+0x2a>
     1a0:	16 c0       	rjmp	.+44     	; 0x1ce <add_data_raw+0x4c>
//ex) 0b00000100 LOWの状態を2カウント続ける　0b00000011 HIGHの状態を1カウント続ける

int add_data_raw(char mvalue,int *count,char length){
	char lengthnumber; char rest;//8ビットカウンタ　1MHz 1/8分周より　2048μsまでしか測れない
	if(length > 3){ lengthnumber = length / 3; rest = length % 3 ;}
	else if(length == 0) return *count;
     1a2:	41 11       	cpse	r20, r1
     1a4:	23 c0       	rjmp	.+70     	; 0x1ec <add_data_raw+0x6a>
     1a6:	20 81       	ld	r18, Z
     1a8:	31 81       	ldd	r19, Z+1	; 0x01
     1aa:	1d c0       	rjmp	.+58     	; 0x1e6 <add_data_raw+0x64>
	else {lengthnumber = 0; rest = length;}
		
	mvalue &= 0b00000001;//2以上の場合は1に
	for (char i=0;i < lengthnumber;i++){
     1ac:	90 e0       	ldi	r25, 0x00	; 0
		IR_data[*count] = (3 << 1) | mvalue;
     1ae:	68 2f       	mov	r22, r24
     1b0:	66 60       	ori	r22, 0x06	; 6
     1b2:	a0 81       	ld	r26, Z
     1b4:	b1 81       	ldd	r27, Z+1	; 0x01
     1b6:	ab 59       	subi	r26, 0x9B	; 155
     1b8:	bc 4f       	sbci	r27, 0xFC	; 252
     1ba:	6c 93       	st	X, r22
		(*count)++;
     1bc:	20 81       	ld	r18, Z
     1be:	31 81       	ldd	r19, Z+1	; 0x01
     1c0:	2f 5f       	subi	r18, 0xFF	; 255
     1c2:	3f 4f       	sbci	r19, 0xFF	; 255
     1c4:	31 83       	std	Z+1, r19	; 0x01
     1c6:	20 83       	st	Z, r18
	if(length > 3){ lengthnumber = length / 3; rest = length % 3 ;}
	else if(length == 0) return *count;
	else {lengthnumber = 0; rest = length;}
		
	mvalue &= 0b00000001;//2以上の場合は1に
	for (char i=0;i < lengthnumber;i++){
     1c8:	9f 5f       	subi	r25, 0xFF	; 255
     1ca:	95 13       	cpse	r25, r21
     1cc:	f2 cf       	rjmp	.-28     	; 0x1b2 <add_data_raw+0x30>
		IR_data[*count] = (3 << 1) | mvalue;
		(*count)++;
	}
	IR_data[(*count)++] = (rest << 1) | mvalue;
     1ce:	20 81       	ld	r18, Z
     1d0:	31 81       	ldd	r19, Z+1	; 0x01
     1d2:	44 0f       	add	r20, r20
     1d4:	84 2b       	or	r24, r20
     1d6:	d9 01       	movw	r26, r18
     1d8:	ab 59       	subi	r26, 0x9B	; 155
     1da:	bc 4f       	sbci	r27, 0xFC	; 252
     1dc:	8c 93       	st	X, r24
     1de:	2f 5f       	subi	r18, 0xFF	; 255
     1e0:	3f 4f       	sbci	r19, 0xFF	; 255
     1e2:	31 83       	std	Z+1, r19	; 0x01
     1e4:	20 83       	st	Z, r18
     1e6:	82 2f       	mov	r24, r18
     1e8:	93 2f       	mov	r25, r19
     1ea:	08 95       	ret
	char lengthnumber; char rest;//8ビットカウンタ　1MHz 1/8分周より　2048μsまでしか測れない
	if(length > 3){ lengthnumber = length / 3; rest = length % 3 ;}
	else if(length == 0) return *count;
	else {lengthnumber = 0; rest = length;}
		
	mvalue &= 0b00000001;//2以上の場合は1に
     1ec:	81 70       	andi	r24, 0x01	; 1
     1ee:	ef cf       	rjmp	.-34     	; 0x1ce <add_data_raw+0x4c>

000001f0 <add_data>:
	}
	IR_data[(*count)++] = (rest << 1) | mvalue;
	return *count;
}

int add_data(char mvalue,int *count){
     1f0:	cf 93       	push	r28
     1f2:	df 93       	push	r29
     1f4:	eb 01       	movw	r28, r22
	if(mvalue){
     1f6:	88 23       	and	r24, r24
     1f8:	41 f0       	breq	.+16     	; 0x20a <add_data+0x1a>
		add_data_raw(1,count,1);
     1fa:	41 e0       	ldi	r20, 0x01	; 1
     1fc:	81 e0       	ldi	r24, 0x01	; 1
     1fe:	c1 df       	rcall	.-126    	; 0x182 <add_data_raw>
		add_data_raw(0,count,3);
     200:	43 e0       	ldi	r20, 0x03	; 3
     202:	be 01       	movw	r22, r28
     204:	80 e0       	ldi	r24, 0x00	; 0
     206:	bd df       	rcall	.-134    	; 0x182 <add_data_raw>
     208:	07 c0       	rjmp	.+14     	; 0x218 <add_data+0x28>
	}
	else{
		add_data_raw(1,count,1);
     20a:	41 e0       	ldi	r20, 0x01	; 1
     20c:	81 e0       	ldi	r24, 0x01	; 1
     20e:	b9 df       	rcall	.-142    	; 0x182 <add_data_raw>
		add_data_raw(0,count,1);
     210:	41 e0       	ldi	r20, 0x01	; 1
     212:	be 01       	movw	r22, r28
     214:	80 e0       	ldi	r24, 0x00	; 0
     216:	b5 df       	rcall	.-150    	; 0x182 <add_data_raw>
	}
	return *count;
}
     218:	88 81       	ld	r24, Y
     21a:	99 81       	ldd	r25, Y+1	; 0x01
     21c:	df 91       	pop	r29
     21e:	cf 91       	pop	r28
     220:	08 95       	ret

00000222 <sio_init>:
#ifndef __USART__H__
#define __USART__H__

/* sio設定 */
void sio_init(unsigned int baud,int bit)
{
     222:	cf 93       	push	r28
     224:	df 93       	push	r29
     226:	9c 01       	movw	r18, r24
     228:	eb 01       	movw	r28, r22
    unsigned int ubrr = (((F_CPU>>4)+(baud>>1))/baud-1);
     22a:	bc 01       	movw	r22, r24
     22c:	76 95       	lsr	r23
     22e:	67 95       	ror	r22
     230:	cb 01       	movw	r24, r22
     232:	a0 e0       	ldi	r26, 0x00	; 0
     234:	b0 e0       	ldi	r27, 0x00	; 0
     236:	bc 01       	movw	r22, r24
     238:	cd 01       	movw	r24, r26
     23a:	6c 5d       	subi	r22, 0xDC	; 220
     23c:	7b 40       	sbci	r23, 0x0B	; 11
     23e:	8f 4f       	sbci	r24, 0xFF	; 255
     240:	9f 4f       	sbci	r25, 0xFF	; 255
     242:	40 e0       	ldi	r20, 0x00	; 0
     244:	50 e0       	ldi	r21, 0x00	; 0
     246:	f6 d5       	rcall	.+3052   	; 0xe34 <__udivmodsi4>
     248:	21 50       	subi	r18, 0x01	; 1
     24a:	31 09       	sbc	r19, r1
    // UBRRを設定するときに丸め処理をしておく。

    UBRR0H = (unsigned char)(ubrr>>8);    // ボーレート上位8bit
     24c:	30 93 c5 00 	sts	0x00C5, r19
    UBRR0L = (unsigned char)ubrr;        // ボーレート下位8bit
     250:	20 93 c4 00 	sts	0x00C4, r18
    UCSR0B = (1<<RXEN0) | (1<<TXEN0) | (1<<RXCIE0) | (1<<TXCIE0);
     254:	88 ed       	ldi	r24, 0xD8	; 216
     256:	80 93 c1 00 	sts	0x00C1, r24
    // 送受信許可,送受信割り込み許可
    switch(bit)
     25a:	c5 30       	cpi	r28, 0x05	; 5
     25c:	d1 05       	cpc	r29, r1
     25e:	31 f0       	breq	.+12     	; 0x26c <sio_init+0x4a>
     260:	28 97       	sbiw	r28, 0x08	; 8
     262:	31 f4       	brne	.+12     	; 0x270 <sio_init+0x4e>
    {
        case 8:
            UCSR0C = (3<<UCSZ00) ;        // stopbit 1bit , 8bit送信
     264:	86 e0       	ldi	r24, 0x06	; 6
     266:	80 93 c2 00 	sts	0x00C2, r24
            break;
     26a:	02 c0       	rjmp	.+4      	; 0x270 <sio_init+0x4e>
        case 5:
            UCSR0C = 0;                 // stopbit 1bit , 5bit送信
     26c:	10 92 c2 00 	sts	0x00C2, r1
    }
}
     270:	df 91       	pop	r29
     272:	cf 91       	pop	r28
     274:	08 95       	ret

00000276 <readChar>:

void onReceivedLine(char *string);
void onstartInput();
void onReceivedChar(char ch);
char readChar(){
	if(usart_recv_read < usart_recv_write)
     276:	90 91 c8 01 	lds	r25, 0x01C8
     27a:	80 91 c9 01 	lds	r24, 0x01C9
     27e:	98 17       	cp	r25, r24
     280:	48 f4       	brcc	.+18     	; 0x294 <readChar+0x1e>
		return usart_recvData[usart_recv_read++];
     282:	e9 2f       	mov	r30, r25
     284:	f0 e0       	ldi	r31, 0x00	; 0
     286:	eb 52       	subi	r30, 0x2B	; 43
     288:	fc 4f       	sbci	r31, 0xFC	; 252
     28a:	80 81       	ld	r24, Z
     28c:	9f 5f       	subi	r25, 0xFF	; 255
     28e:	90 93 c8 01 	sts	0x01C8, r25
     292:	08 95       	ret
	else
		return '\0';
     294:	80 e0       	ldi	r24, 0x00	; 0
}
     296:	08 95       	ret

00000298 <is_transmitted>:
    return  (usart_recv_write !=  usart_recv_read) ? 1 : 0;
    // read位置とwrite位置が異なるならば受信データがあるはず
}

char is_transmitted(){
	return (usart_send_write == usart_send_read) ? 1 : 0;
     298:	90 91 c6 01 	lds	r25, 0x01C6
     29c:	81 e0       	ldi	r24, 0x01	; 1
     29e:	20 91 c7 01 	lds	r18, 0x01C7
     2a2:	29 13       	cpse	r18, r25
     2a4:	80 e0       	ldi	r24, 0x00	; 0
}
     2a6:	08 95       	ret

000002a8 <private_send_char>:

// 送信バッファにデータがあれば、そこから1バイト送信するルーチン。
// 内部的に使用しているだけなのでユーザーは呼び出さないで。
void private_send_char()
{
    if (usart_send_write != usart_send_read)
     2a8:	80 91 c6 01 	lds	r24, 0x01C6
     2ac:	90 91 c7 01 	lds	r25, 0x01C7
     2b0:	98 17       	cp	r25, r24
     2b2:	61 f0       	breq	.+24     	; 0x2cc <private_send_char+0x24>
        UDR0 = usart_sendData[usart_send_read++];// 送信バッファのデータを送信
     2b4:	80 91 c6 01 	lds	r24, 0x01C6
     2b8:	e8 2f       	mov	r30, r24
     2ba:	f0 e0       	ldi	r31, 0x00	; 0
     2bc:	eb 52       	subi	r30, 0x2B	; 43
     2be:	fe 4f       	sbci	r31, 0xFE	; 254
     2c0:	90 81       	ld	r25, Z
     2c2:	90 93 c6 00 	sts	0x00C6, r25
     2c6:	8f 5f       	subi	r24, 0xFF	; 255
     2c8:	80 93 c6 01 	sts	0x01C6, r24
     2cc:	08 95       	ret

000002ce <__vector_20>:
}

// 割り込みによる送信
ISR(USART_TX_vect)
{
     2ce:	1f 92       	push	r1
     2d0:	0f 92       	push	r0
     2d2:	0f b6       	in	r0, 0x3f	; 63
     2d4:	0f 92       	push	r0
     2d6:	11 24       	eor	r1, r1
     2d8:	2f 93       	push	r18
     2da:	3f 93       	push	r19
     2dc:	4f 93       	push	r20
     2de:	5f 93       	push	r21
     2e0:	6f 93       	push	r22
     2e2:	7f 93       	push	r23
     2e4:	8f 93       	push	r24
     2e6:	9f 93       	push	r25
     2e8:	af 93       	push	r26
     2ea:	bf 93       	push	r27
     2ec:	ef 93       	push	r30
     2ee:	ff 93       	push	r31
    private_send_char();
     2f0:	db df       	rcall	.-74     	; 0x2a8 <private_send_char>
}
     2f2:	ff 91       	pop	r31
     2f4:	ef 91       	pop	r30
     2f6:	bf 91       	pop	r27
     2f8:	af 91       	pop	r26
     2fa:	9f 91       	pop	r25
     2fc:	8f 91       	pop	r24
     2fe:	7f 91       	pop	r23
     300:	6f 91       	pop	r22
     302:	5f 91       	pop	r21
     304:	4f 91       	pop	r20
     306:	3f 91       	pop	r19
     308:	2f 91       	pop	r18
     30a:	0f 90       	pop	r0
     30c:	0f be       	out	0x3f, r0	; 63
     30e:	0f 90       	pop	r0
     310:	1f 90       	pop	r1
     312:	18 95       	reti

00000314 <sendChar>:

// 1バイト送信
void sendChar(int c)
{
    // 送信バッファがいっぱいなら待つ
    while(((usart_send_write + 1) & 0xff) == usart_send_read)
     314:	90 91 c7 01 	lds	r25, 0x01C7
     318:	69 2f       	mov	r22, r25
     31a:	70 e0       	ldi	r23, 0x00	; 0
     31c:	ab 01       	movw	r20, r22
     31e:	4f 5f       	subi	r20, 0xFF	; 255
     320:	5f 4f       	sbci	r21, 0xFF	; 255
     322:	55 27       	eor	r21, r21
     324:	20 91 c6 01 	lds	r18, 0x01C6
     328:	30 e0       	ldi	r19, 0x00	; 0
     32a:	42 17       	cp	r20, r18
     32c:	53 07       	cpc	r21, r19
     32e:	d1 f3       	breq	.-12     	; 0x324 <sendChar+0x10>
        ;

    // 何はともあれ送信バッファにデータを積む。
    usart_sendData[usart_send_write++] = c;
     330:	fb 01       	movw	r30, r22
     332:	eb 52       	subi	r30, 0x2B	; 43
     334:	fe 4f       	sbci	r31, 0xFE	; 254
     336:	80 83       	st	Z, r24
     338:	9f 5f       	subi	r25, 0xFF	; 255
     33a:	90 93 c7 01 	sts	0x01C7, r25

    // 送信レジスタがセットされている == 送信できる状態　ならば、
    // 一度だけ送信しておく。
    if (UCSR0A & (1<<UDRE0))
     33e:	80 91 c0 00 	lds	r24, 0x00C0
     342:	85 fd       	sbrc	r24, 5
        private_send_char();
     344:	b1 df       	rcall	.-158    	; 0x2a8 <private_send_char>
     346:	08 95       	ret

00000348 <sendString>:
    // その送信が完了するまでここで積んだデータが送信されないからである。
}

// 文字列の送信
void sendString(char *p)
{
     348:	cf 93       	push	r28
     34a:	df 93       	push	r29
     34c:	ec 01       	movw	r28, r24
    while(*p)
     34e:	88 81       	ld	r24, Y
     350:	88 23       	and	r24, r24
     352:	31 f0       	breq	.+12     	; 0x360 <sendString+0x18>
    // usart_send_write == usart_send_readであった場合、次にsendCharが呼び出されて
    // その送信が完了するまでここで積んだデータが送信されないからである。
}

// 文字列の送信
void sendString(char *p)
     354:	21 96       	adiw	r28, 0x01	; 1
{
    while(*p)
        sendChar(*p++);
     356:	90 e0       	ldi	r25, 0x00	; 0
     358:	dd df       	rcall	.-70     	; 0x314 <sendChar>
}

// 文字列の送信
void sendString(char *p)
{
    while(*p)
     35a:	89 91       	ld	r24, Y+
     35c:	81 11       	cpse	r24, r1
     35e:	fb cf       	rjmp	.-10     	; 0x356 <sendString+0xe>
        sendChar(*p++);
}
     360:	df 91       	pop	r29
     362:	cf 91       	pop	r28
     364:	08 95       	ret

00000366 <sendReturn>:
	else
		return '\0';
}

void sendReturn(){
	sendString("\r\n");
     366:	83 e0       	ldi	r24, 0x03	; 3
     368:	91 e0       	ldi	r25, 0x01	; 1
     36a:	ee df       	rcall	.-36     	; 0x348 <sendString>
     36c:	08 95       	ret

0000036e <stopInput>:
	onstartInput();
	usart_enable_echoback = 1;
}

void stopInput(){
	sendReturn();
     36e:	fb df       	rcall	.-10     	; 0x366 <sendReturn>
	usart_enable_echoback = 0;
     370:	10 92 c5 01 	sts	0x01C5, r1
     374:	08 95       	ret

00000376 <sendStringLine>:
    while(*p)
        sendChar(*p++);
}

void sendStringLine(char *p){
	sendString(p);
     376:	e8 df       	rcall	.-48     	; 0x348 <sendString>
	sendReturn();
     378:	f6 df       	rcall	.-20     	; 0x366 <sendReturn>
     37a:	08 95       	ret

0000037c <onReceivedLine>:
volatile char commandMode_flag = 0;
volatile char startCapture_flag = 0;
volatile char IRrecv_flag = 0;
	
void onReceivedLine(char *string){
	receivedstring = string;
     37c:	90 93 d4 01 	sts	0x01D4, r25
     380:	80 93 d3 01 	sts	0x01D3, r24
	if(requirereceivedline_flag) onreceivedline_flag = 1;
     384:	20 91 c3 01 	lds	r18, 0x01C3
     388:	22 23       	and	r18, r18
     38a:	21 f0       	breq	.+8      	; 0x394 <onReceivedLine+0x18>
     38c:	81 e0       	ldi	r24, 0x01	; 1
     38e:	80 93 c4 01 	sts	0x01C4, r24
     392:	08 95       	ret
	else *receivedstring = "";
     394:	25 e0       	ldi	r18, 0x05	; 5
     396:	31 e0       	ldi	r19, 0x01	; 1
     398:	fc 01       	movw	r30, r24
     39a:	20 83       	st	Z, r18
     39c:	08 95       	ret

0000039e <onstartInput>:
}

void onstartInput(){
	requirereceivedline_flag = 1;
     39e:	81 e0       	ldi	r24, 0x01	; 1
     3a0:	80 93 c3 01 	sts	0x01C3, r24
     3a4:	08 95       	ret

000003a6 <startInput>:
void sendReturn(){
	sendString("\r\n");
}

void startInput(){
	sendReturn();
     3a6:	df df       	rcall	.-66     	; 0x366 <sendReturn>
	onstartInput();
     3a8:	fa df       	rcall	.-12     	; 0x39e <onstartInput>
	usart_enable_echoback = 1;
     3aa:	81 e0       	ldi	r24, 0x01	; 1
     3ac:	80 93 c5 01 	sts	0x01C5, r24
     3b0:	08 95       	ret

000003b2 <onReceivedChar>:
}

void onReceivedChar(char ch){
	if (ch == '$') commandMode_flag = 1;
     3b2:	84 32       	cpi	r24, 0x24	; 36
     3b4:	19 f4       	brne	.+6      	; 0x3bc <onReceivedChar+0xa>
     3b6:	81 e0       	ldi	r24, 0x01	; 1
     3b8:	80 93 bc 01 	sts	0x01BC, r24
     3bc:	08 95       	ret

000003be <__vector_18>:
    return usart_recvData[usart_recv_read++];
}

// 割り込みによる受信
ISR(USART_RX_vect)
{
     3be:	1f 92       	push	r1
     3c0:	0f 92       	push	r0
     3c2:	0f b6       	in	r0, 0x3f	; 63
     3c4:	0f 92       	push	r0
     3c6:	11 24       	eor	r1, r1
     3c8:	1f 93       	push	r17
     3ca:	2f 93       	push	r18
     3cc:	3f 93       	push	r19
     3ce:	4f 93       	push	r20
     3d0:	5f 93       	push	r21
     3d2:	6f 93       	push	r22
     3d4:	7f 93       	push	r23
     3d6:	8f 93       	push	r24
     3d8:	9f 93       	push	r25
     3da:	af 93       	push	r26
     3dc:	bf 93       	push	r27
     3de:	ef 93       	push	r30
     3e0:	ff 93       	push	r31
     3e2:	cf 93       	push	r28
     3e4:	df 93       	push	r29
     3e6:	cd b7       	in	r28, 0x3d	; 61
     3e8:	de b7       	in	r29, 0x3e	; 62
     3ea:	c1 54       	subi	r28, 0x41	; 65
     3ec:	d1 09       	sbc	r29, r1
     3ee:	de bf       	out	0x3e, r29	; 62
     3f0:	cd bf       	out	0x3d, r28	; 61
	volatile char ch;
	ch = UDR0;
     3f2:	80 91 c6 00 	lds	r24, 0x00C6
     3f6:	89 83       	std	Y+1, r24	; 0x01
	onReceivedChar(ch);
     3f8:	89 81       	ldd	r24, Y+1	; 0x01
     3fa:	db df       	rcall	.-74     	; 0x3b2 <onReceivedChar>
	if(usart_enable_echoback){
     3fc:	80 91 c5 01 	lds	r24, 0x01C5
     400:	88 23       	and	r24, r24
     402:	a1 f1       	breq	.+104    	; 0x46c <__vector_18+0xae>
    usart_recvData[(ch == '\b') ? usart_recv_write-- : usart_recv_write++] = ch;    // 受信データを受信バッファに格納
     404:	89 81       	ldd	r24, Y+1	; 0x01
     406:	88 30       	cpi	r24, 0x08	; 8
     408:	41 f4       	brne	.+16     	; 0x41a <__vector_18+0x5c>
     40a:	80 91 c9 01 	lds	r24, 0x01C9
     40e:	e8 2f       	mov	r30, r24
     410:	f0 e0       	ldi	r31, 0x00	; 0
     412:	81 50       	subi	r24, 0x01	; 1
     414:	80 93 c9 01 	sts	0x01C9, r24
     418:	07 c0       	rjmp	.+14     	; 0x428 <__vector_18+0x6a>
     41a:	80 91 c9 01 	lds	r24, 0x01C9
     41e:	e8 2f       	mov	r30, r24
     420:	f0 e0       	ldi	r31, 0x00	; 0
     422:	8f 5f       	subi	r24, 0xFF	; 255
     424:	80 93 c9 01 	sts	0x01C9, r24
     428:	89 81       	ldd	r24, Y+1	; 0x01
     42a:	eb 52       	subi	r30, 0x2B	; 43
     42c:	fc 4f       	sbci	r31, 0xFC	; 252
     42e:	80 83       	st	Z, r24
	sendChar(ch);
     430:	89 81       	ldd	r24, Y+1	; 0x01
     432:	90 e0       	ldi	r25, 0x00	; 0
     434:	6f df       	rcall	.-290    	; 0x314 <sendChar>
	if(ch == '\r') {
     436:	89 81       	ldd	r24, Y+1	; 0x01
     438:	8d 30       	cpi	r24, 0x0D	; 13
     43a:	c1 f4       	brne	.+48     	; 0x46c <__vector_18+0xae>
     43c:	10 e0       	ldi	r17, 0x00	; 0
		volatile char str[64];
		byte count = 0;
		while(1){
			char readchar = readChar();
     43e:	1b df       	rcall	.-458    	; 0x276 <readChar>
			if(readchar == '\0') break;
     440:	88 23       	and	r24, r24
     442:	49 f0       	breq	.+18     	; 0x456 <__vector_18+0x98>
			str[count++] = readchar;
     444:	e2 e0       	ldi	r30, 0x02	; 2
     446:	f0 e0       	ldi	r31, 0x00	; 0
     448:	ec 0f       	add	r30, r28
     44a:	fd 1f       	adc	r31, r29
     44c:	e1 0f       	add	r30, r17
     44e:	f1 1d       	adc	r31, r1
     450:	80 83       	st	Z, r24
     452:	1f 5f       	subi	r17, 0xFF	; 255
		}
     454:	f4 cf       	rjmp	.-24     	; 0x43e <__vector_18+0x80>
		str[--count] = '\0';
     456:	11 50       	subi	r17, 0x01	; 1
     458:	e2 e0       	ldi	r30, 0x02	; 2
     45a:	f0 e0       	ldi	r31, 0x00	; 0
     45c:	ec 0f       	add	r30, r28
     45e:	fd 1f       	adc	r31, r29
     460:	e1 0f       	add	r30, r17
     462:	f1 1d       	adc	r31, r1
     464:	10 82       	st	Z, r1
		onReceivedLine(&str);
     466:	ce 01       	movw	r24, r28
     468:	02 96       	adiw	r24, 0x02	; 2
     46a:	88 df       	rcall	.-240    	; 0x37c <onReceivedLine>
	}
	}
}
     46c:	cf 5b       	subi	r28, 0xBF	; 191
     46e:	df 4f       	sbci	r29, 0xFF	; 255
     470:	0f b6       	in	r0, 0x3f	; 63
     472:	f8 94       	cli
     474:	de bf       	out	0x3e, r29	; 62
     476:	0f be       	out	0x3f, r0	; 63
     478:	cd bf       	out	0x3d, r28	; 61
     47a:	df 91       	pop	r29
     47c:	cf 91       	pop	r28
     47e:	ff 91       	pop	r31
     480:	ef 91       	pop	r30
     482:	bf 91       	pop	r27
     484:	af 91       	pop	r26
     486:	9f 91       	pop	r25
     488:	8f 91       	pop	r24
     48a:	7f 91       	pop	r23
     48c:	6f 91       	pop	r22
     48e:	5f 91       	pop	r21
     490:	4f 91       	pop	r20
     492:	3f 91       	pop	r19
     494:	2f 91       	pop	r18
     496:	1f 91       	pop	r17
     498:	0f 90       	pop	r0
     49a:	0f be       	out	0x3f, r0	; 63
     49c:	0f 90       	pop	r0
     49e:	1f 90       	pop	r1
     4a0:	18 95       	reti

000004a2 <waitInput>:
}

//timeout:0.1s
char waitInput(char timeout){
	if(timeout == 0) timeout = 0xFF;
     4a2:	81 11       	cpse	r24, r1
     4a4:	01 c0       	rjmp	.+2      	; 0x4a8 <waitInput+0x6>
     4a6:	8f ef       	ldi	r24, 0xFF	; 255
	char i = 0;
     4a8:	90 e0       	ldi	r25, 0x00	; 0
	while(!onreceivedline_flag){
     4aa:	0d c0       	rjmp	.+26     	; 0x4c6 <waitInput+0x24>
     4ac:	e7 ea       	ldi	r30, 0xA7	; 167
     4ae:	f1 e6       	ldi	r31, 0x61	; 97
     4b0:	31 97       	sbiw	r30, 0x01	; 1
     4b2:	f1 f7       	brne	.-4      	; 0x4b0 <waitInput+0xe>
     4b4:	00 c0       	rjmp	.+0      	; 0x4b6 <waitInput+0x14>
     4b6:	00 00       	nop
		wait(100);
		i++;
     4b8:	9f 5f       	subi	r25, 0xFF	; 255
		if(i > timeout){
     4ba:	89 17       	cp	r24, r25
     4bc:	20 f4       	brcc	.+8      	; 0x4c6 <waitInput+0x24>
			 requirereceivedline_flag = 0;
     4be:	10 92 c3 01 	sts	0x01C3, r1
			 return 0;
     4c2:	80 e0       	ldi	r24, 0x00	; 0
     4c4:	08 95       	ret

//timeout:0.1s
char waitInput(char timeout){
	if(timeout == 0) timeout = 0xFF;
	char i = 0;
	while(!onreceivedline_flag){
     4c6:	20 91 c4 01 	lds	r18, 0x01C4
     4ca:	22 23       	and	r18, r18
     4cc:	79 f3       	breq	.-34     	; 0x4ac <waitInput+0xa>
		if(i > timeout){
			 requirereceivedline_flag = 0;
			 return 0;
		}
	}
	onreceivedline_flag = 0;
     4ce:	10 92 c4 01 	sts	0x01C4, r1
	return 1;
     4d2:	81 e0       	ldi	r24, 0x01	; 1
}
     4d4:	08 95       	ret

000004d6 <ask>:

char *ask(char *question,char timeout){
     4d6:	cf 93       	push	r28
     4d8:	c6 2f       	mov	r28, r22
	char isTimeout = 0;
	sendStringLine(question);
     4da:	4d df       	rcall	.-358    	; 0x376 <sendStringLine>
	startInput();
     4dc:	64 df       	rcall	.-312    	; 0x3a6 <startInput>
	if(!waitInput(timeout)) isTimeout = 1;
     4de:	8c 2f       	mov	r24, r28
     4e0:	e0 df       	rcall	.-64     	; 0x4a2 <waitInput>
     4e2:	c8 2f       	mov	r28, r24
	stopInput();
     4e4:	44 df       	rcall	.-376    	; 0x36e <stopInput>
	requirereceivedline_flag = 0;
     4e6:	10 92 c3 01 	sts	0x01C3, r1
	return isTimeout ? "\0" : receivedstring;
     4ea:	cc 23       	and	r28, r28
     4ec:	29 f0       	breq	.+10     	; 0x4f8 <ask+0x22>
     4ee:	20 91 d3 01 	lds	r18, 0x01D3
     4f2:	30 91 d4 01 	lds	r19, 0x01D4
     4f6:	02 c0       	rjmp	.+4      	; 0x4fc <ask+0x26>
     4f8:	21 e0       	ldi	r18, 0x01	; 1
     4fa:	31 e0       	ldi	r19, 0x01	; 1
}
     4fc:	82 2f       	mov	r24, r18
     4fe:	93 2f       	mov	r25, r19
     500:	cf 91       	pop	r28
     502:	08 95       	ret

00000504 <equal>:

char equal(char *one,char *two){
	unsigned char count = 0;
     504:	40 e0       	ldi	r20, 0x00	; 0
	while(1){
		//sendChar((*(one + count) == '\0') + 48);
		//sendChar((*(two + count) == '\0') + 48);
		if((*(one + count) == '\0') && (*(two + count) == '\0')) return 1;
     506:	24 2f       	mov	r18, r20
     508:	30 e0       	ldi	r19, 0x00	; 0
     50a:	fc 01       	movw	r30, r24
     50c:	e2 0f       	add	r30, r18
     50e:	f3 1f       	adc	r31, r19
     510:	50 81       	ld	r21, Z
     512:	51 11       	cpse	r21, r1
     514:	09 c0       	rjmp	.+18     	; 0x528 <equal+0x24>
     516:	fb 01       	movw	r30, r22
     518:	e2 0f       	add	r30, r18
     51a:	f3 1f       	adc	r31, r19
     51c:	81 e0       	ldi	r24, 0x01	; 1
     51e:	90 81       	ld	r25, Z
     520:	99 23       	and	r25, r25
     522:	59 f0       	breq	.+22     	; 0x53a <equal+0x36>
     524:	80 e0       	ldi	r24, 0x00	; 0
     526:	08 95       	ret
		//sendReturn();
		//sendChar(*(one + count));sendChar(*(two + count));
		if(*(one + count) != *(two + count)) return 0;
     528:	fb 01       	movw	r30, r22
     52a:	e2 0f       	add	r30, r18
     52c:	f3 1f       	adc	r31, r19
     52e:	20 81       	ld	r18, Z
     530:	52 13       	cpse	r21, r18
     532:	02 c0       	rjmp	.+4      	; 0x538 <equal+0x34>
		count++;
     534:	4f 5f       	subi	r20, 0xFF	; 255
	}
     536:	e7 cf       	rjmp	.-50     	; 0x506 <equal+0x2>
		//sendChar((*(one + count) == '\0') + 48);
		//sendChar((*(two + count) == '\0') + 48);
		if((*(one + count) == '\0') && (*(two + count) == '\0')) return 1;
		//sendReturn();
		//sendChar(*(one + count));sendChar(*(two + count));
		if(*(one + count) != *(two + count)) return 0;
     538:	80 e0       	ldi	r24, 0x00	; 0
		count++;
	}
}
     53a:	08 95       	ret

0000053c <IR_onSendStart>:
}

void IR_onSendStart(){
	//sbi(PORTB,PB2);
	//cbi(PORTB,PB3);
	IR_initialize(1);
     53c:	81 e0       	ldi	r24, 0x01	; 1
     53e:	ce dd       	rcall	.-1124   	; 0xdc <IR_initialize>
     540:	08 95       	ret

00000542 <IR_send>:

void IR_send(int customer,char data){
     542:	cf 92       	push	r12
     544:	df 92       	push	r13
     546:	ef 92       	push	r14
     548:	ff 92       	push	r15
     54a:	0f 93       	push	r16
     54c:	1f 93       	push	r17
     54e:	cf 93       	push	r28
     550:	df 93       	push	r29
     552:	00 d0       	rcall	.+0      	; 0x554 <IR_send+0x12>
     554:	cd b7       	in	r28, 0x3d	; 61
     556:	de b7       	in	r29, 0x3e	; 62
     558:	7c 01       	movw	r14, r24
     55a:	d6 2e       	mov	r13, r22

	int count = 0;
     55c:	1a 82       	std	Y+2, r1	; 0x02
     55e:	19 82       	std	Y+1, r1	; 0x01
	count = 0;
	add_data_raw(1,&count,16);
     560:	40 e1       	ldi	r20, 0x10	; 16
     562:	be 01       	movw	r22, r28
     564:	6f 5f       	subi	r22, 0xFF	; 255
     566:	7f 4f       	sbci	r23, 0xFF	; 255
     568:	81 e0       	ldi	r24, 0x01	; 1
     56a:	0b de       	rcall	.-1002   	; 0x182 <add_data_raw>
	add_data_raw(0,&count,8);
     56c:	48 e0       	ldi	r20, 0x08	; 8
     56e:	be 01       	movw	r22, r28
     570:	6f 5f       	subi	r22, 0xFF	; 255
     572:	7f 4f       	sbci	r23, 0xFF	; 255
     574:	80 e0       	ldi	r24, 0x00	; 0
     576:	05 de       	rcall	.-1014   	; 0x182 <add_data_raw>
     578:	0f e0       	ldi	r16, 0x0F	; 15
     57a:	10 e0       	ldi	r17, 0x00	; 0
	
	for(char i=0;i < 16;i++){
		add_data(((customer >> (15 - i)) & 0x0001),&count);//カスタマーコード　上位ビットからiビット目が1の時
     57c:	c7 01       	movw	r24, r14
     57e:	00 2e       	mov	r0, r16
     580:	02 c0       	rjmp	.+4      	; 0x586 <IR_send+0x44>
     582:	95 95       	asr	r25
     584:	87 95       	ror	r24
     586:	0a 94       	dec	r0
     588:	e2 f7       	brpl	.-8      	; 0x582 <IR_send+0x40>
     58a:	be 01       	movw	r22, r28
     58c:	6f 5f       	subi	r22, 0xFF	; 255
     58e:	7f 4f       	sbci	r23, 0xFF	; 255
     590:	81 70       	andi	r24, 0x01	; 1
     592:	2e de       	rcall	.-932    	; 0x1f0 <add_data>
     594:	01 50       	subi	r16, 0x01	; 1
     596:	11 09       	sbc	r17, r1
     598:	88 f7       	brcc	.-30     	; 0x57c <IR_send+0x3a>
	int count = 0;
	count = 0;
	add_data_raw(1,&count,16);
	add_data_raw(0,&count,8);
	
	for(char i=0;i < 16;i++){
     59a:	07 e0       	ldi	r16, 0x07	; 7
     59c:	10 e0       	ldi	r17, 0x00	; 0
		add_data(((customer >> (15 - i)) & 0x0001),&count);//カスタマーコード　上位ビットからiビット目が1の時
	}
	for(char i=0;i < 8;i++){
		add_data(((data >> (7 - i)) & 0x01),&count);
     59e:	ed 2c       	mov	r14, r13
     5a0:	f1 2c       	mov	r15, r1
     5a2:	c7 01       	movw	r24, r14
     5a4:	00 2e       	mov	r0, r16
     5a6:	02 c0       	rjmp	.+4      	; 0x5ac <IR_send+0x6a>
     5a8:	95 95       	asr	r25
     5aa:	87 95       	ror	r24
     5ac:	0a 94       	dec	r0
     5ae:	e2 f7       	brpl	.-8      	; 0x5a8 <IR_send+0x66>
     5b0:	be 01       	movw	r22, r28
     5b2:	6f 5f       	subi	r22, 0xFF	; 255
     5b4:	7f 4f       	sbci	r23, 0xFF	; 255
     5b6:	81 70       	andi	r24, 0x01	; 1
     5b8:	1b de       	rcall	.-970    	; 0x1f0 <add_data>
     5ba:	01 50       	subi	r16, 0x01	; 1
     5bc:	11 09       	sbc	r17, r1
     5be:	88 f7       	brcc	.-30     	; 0x5a2 <IR_send+0x60>
	add_data_raw(0,&count,8);
	
	for(char i=0;i < 16;i++){
		add_data(((customer >> (15 - i)) & 0x0001),&count);//カスタマーコード　上位ビットからiビット目が1の時
	}
	for(char i=0;i < 8;i++){
     5c0:	07 e0       	ldi	r16, 0x07	; 7
     5c2:	10 e0       	ldi	r17, 0x00	; 0
			IR_data[count] = 1;count++;
			for(char ii=0;ii < 3;ii++){IR_data[count] = 0;count++;}
		}*/
	}
	for(char i=0;i < 8;i++){
		add_data(((~data >> (7 - i)) & 0x01),&count);
     5c4:	e0 94       	com	r14
     5c6:	f0 94       	com	r15
     5c8:	c7 01       	movw	r24, r14
     5ca:	00 2e       	mov	r0, r16
     5cc:	02 c0       	rjmp	.+4      	; 0x5d2 <IR_send+0x90>
     5ce:	95 95       	asr	r25
     5d0:	87 95       	ror	r24
     5d2:	0a 94       	dec	r0
     5d4:	e2 f7       	brpl	.-8      	; 0x5ce <IR_send+0x8c>
     5d6:	be 01       	movw	r22, r28
     5d8:	6f 5f       	subi	r22, 0xFF	; 255
     5da:	7f 4f       	sbci	r23, 0xFF	; 255
     5dc:	81 70       	andi	r24, 0x01	; 1
     5de:	08 de       	rcall	.-1008   	; 0x1f0 <add_data>
     5e0:	01 50       	subi	r16, 0x01	; 1
     5e2:	11 09       	sbc	r17, r1
     5e4:	88 f7       	brcc	.-30     	; 0x5c8 <IR_send+0x86>
			IR_data[count] = 1;count++;
			for(char ii=0;ii < 3;ii++){IR_data[count] = 0;count++;}
		}*/
	}
	//add_data(1,&count);
	add_data_raw(1,&count,1);
     5e6:	41 e0       	ldi	r20, 0x01	; 1
     5e8:	be 01       	movw	r22, r28
     5ea:	6f 5f       	subi	r22, 0xFF	; 255
     5ec:	7f 4f       	sbci	r23, 0xFF	; 255
     5ee:	81 e0       	ldi	r24, 0x01	; 1
     5f0:	c8 dd       	rcall	.-1136   	; 0x182 <add_data_raw>
	add_data_raw(0,&count,1);
     5f2:	41 e0       	ldi	r20, 0x01	; 1
     5f4:	be 01       	movw	r22, r28
     5f6:	6f 5f       	subi	r22, 0xFF	; 255
     5f8:	7f 4f       	sbci	r23, 0xFF	; 255
     5fa:	80 e0       	ldi	r24, 0x00	; 0
     5fc:	c2 dd       	rcall	.-1148   	; 0x182 <add_data_raw>
	
	//if(IR_data[0] == 0) sbi(PORTD,PD7);else cbi(PORTD,PD7);
	
	while(count < 96){
     5fe:	89 81       	ldd	r24, Y+1	; 0x01
     600:	9a 81       	ldd	r25, Y+2	; 0x02
     602:	80 36       	cpi	r24, 0x60	; 96
     604:	91 05       	cpc	r25, r1
     606:	64 f4       	brge	.+24     	; 0x620 <IR_send+0xde>
		IR_data[(count)++] = 0;
     608:	fc 01       	movw	r30, r24
     60a:	eb 59       	subi	r30, 0x9B	; 155
     60c:	fc 4f       	sbci	r31, 0xFC	; 252
     60e:	10 82       	st	Z, r1
     610:	01 96       	adiw	r24, 0x01	; 1
	add_data_raw(1,&count,1);
	add_data_raw(0,&count,1);
	
	//if(IR_data[0] == 0) sbi(PORTD,PD7);else cbi(PORTD,PD7);
	
	while(count < 96){
     612:	80 36       	cpi	r24, 0x60	; 96
     614:	91 05       	cpc	r25, r1
     616:	c1 f7       	brne	.-16     	; 0x608 <IR_send+0xc6>
     618:	80 e6       	ldi	r24, 0x60	; 96
     61a:	90 e0       	ldi	r25, 0x00	; 0
     61c:	9a 83       	std	Y+2, r25	; 0x02
     61e:	89 83       	std	Y+1, r24	; 0x01
		IR_data[(count)++] = 0;
	}
	

	IR_onSendStart();
     620:	8d df       	rcall	.-230    	; 0x53c <IR_onSendStart>
	IR_isSending = 1;
     622:	81 e0       	ldi	r24, 0x01	; 1
     624:	80 93 ca 01 	sts	0x01CA, r24
	//sbi(PORTD,PD6);
	sbi(TIMER_INTERRUPT,TIMER_INTERRUPT_BIT);
     628:	ee e6       	ldi	r30, 0x6E	; 110
     62a:	f0 e0       	ldi	r31, 0x00	; 0
     62c:	80 81       	ld	r24, Z
     62e:	82 60       	ori	r24, 0x02	; 2
     630:	80 83       	st	Z, r24
}
     632:	0f 90       	pop	r0
     634:	0f 90       	pop	r0
     636:	df 91       	pop	r29
     638:	cf 91       	pop	r28
     63a:	1f 91       	pop	r17
     63c:	0f 91       	pop	r16
     63e:	ff 90       	pop	r15
     640:	ef 90       	pop	r14
     642:	df 90       	pop	r13
     644:	cf 90       	pop	r12
     646:	08 95       	ret

00000648 <IR_onSendFinished>:
}

void IR_onSendFinished(){
	startCapture_flag = 1;
     648:	81 e0       	ldi	r24, 0x01	; 1
     64a:	80 93 bb 01 	sts	0x01BB, r24
     64e:	08 95       	ret

00000650 <__vector_14>:
void IR_onSendStart();
void IR_onSendFinished();
void IR_onInitialize();
void IR_onReceived(int consumer,int data);

ISR ( TIMER0_COMPA_vect ){
     650:	1f 92       	push	r1
     652:	0f 92       	push	r0
     654:	0f b6       	in	r0, 0x3f	; 63
     656:	0f 92       	push	r0
     658:	11 24       	eor	r1, r1
     65a:	2f 93       	push	r18
     65c:	3f 93       	push	r19
     65e:	4f 93       	push	r20
     660:	5f 93       	push	r21
     662:	6f 93       	push	r22
     664:	7f 93       	push	r23
     666:	8f 93       	push	r24
     668:	9f 93       	push	r25
     66a:	af 93       	push	r26
     66c:	bf 93       	push	r27
     66e:	ef 93       	push	r30
     670:	ff 93       	push	r31
	while(bit_is_clear(PWM_CONTROL_A,1));
     672:	e0 e8       	ldi	r30, 0x80	; 128
     674:	f0 e0       	ldi	r31, 0x00	; 0
     676:	80 81       	ld	r24, Z
     678:	81 ff       	sbrs	r24, 1
     67a:	fd cf       	rjmp	.-6      	; 0x676 <__vector_14+0x26>
	PWM_COMP = IR_DUTY;
     67c:	89 e0       	ldi	r24, 0x09	; 9
     67e:	80 93 88 00 	sts	0x0088, r24
	if(IR_data[IR_count] & 0b00000001){
     682:	e0 91 cc 01 	lds	r30, 0x01CC
     686:	f0 91 cd 01 	lds	r31, 0x01CD
     68a:	eb 59       	subi	r30, 0x9B	; 155
     68c:	fc 4f       	sbci	r31, 0xFC	; 252
     68e:	80 81       	ld	r24, Z
     690:	80 ff       	sbrs	r24, 0
     692:	07 c0       	rjmp	.+14     	; 0x6a2 <__vector_14+0x52>
		sbi(PWM_CONTROL_A,7);
     694:	e0 e8       	ldi	r30, 0x80	; 128
     696:	f0 e0       	ldi	r31, 0x00	; 0
     698:	80 81       	ld	r24, Z
     69a:	80 68       	ori	r24, 0x80	; 128
     69c:	80 83       	st	Z, r24
		sbi(PORTD,PD7);
     69e:	5f 9a       	sbi	0x0b, 7	; 11
     6a0:	06 c0       	rjmp	.+12     	; 0x6ae <__vector_14+0x5e>
	}
	else{
		cbi(PWM_CONTROL_A,7);
     6a2:	e0 e8       	ldi	r30, 0x80	; 128
     6a4:	f0 e0       	ldi	r31, 0x00	; 0
     6a6:	80 81       	ld	r24, Z
     6a8:	8f 77       	andi	r24, 0x7F	; 127
     6aa:	80 83       	st	Z, r24
		cbi(PORTD,PD7);
     6ac:	5f 98       	cbi	0x0b, 7	; 11
	}
	TIMER_COMP = IR_T * (IR_data[IR_count] >> 1);
     6ae:	e0 91 cc 01 	lds	r30, 0x01CC
     6b2:	f0 91 cd 01 	lds	r31, 0x01CD
     6b6:	eb 59       	subi	r30, 0x9B	; 155
     6b8:	fc 4f       	sbci	r31, 0xFC	; 252
     6ba:	80 81       	ld	r24, Z
     6bc:	86 95       	lsr	r24
     6be:	96 e4       	ldi	r25, 0x46	; 70
     6c0:	89 9f       	mul	r24, r25
     6c2:	80 2d       	mov	r24, r0
     6c4:	11 24       	eor	r1, r1
     6c6:	87 bd       	out	0x27, r24	; 39
	//sbi(TIMER_INTERRUPT,TIMER_INTERRUPT_BIT);
	IR_count++;
     6c8:	80 91 cc 01 	lds	r24, 0x01CC
     6cc:	90 91 cd 01 	lds	r25, 0x01CD
     6d0:	01 96       	adiw	r24, 0x01	; 1
     6d2:	90 93 cd 01 	sts	0x01CD, r25
     6d6:	80 93 cc 01 	sts	0x01CC, r24
	if(IR_data[IR_count] == 0) {
     6da:	e0 91 cc 01 	lds	r30, 0x01CC
     6de:	f0 91 cd 01 	lds	r31, 0x01CD
     6e2:	eb 59       	subi	r30, 0x9B	; 155
     6e4:	fc 4f       	sbci	r31, 0xFC	; 252
     6e6:	80 81       	ld	r24, Z
     6e8:	81 11       	cpse	r24, r1
     6ea:	12 c0       	rjmp	.+36     	; 0x710 <__vector_14+0xc0>
		//tbi(PORTD,PD7);
		cbi(PWM_CONTROL_A,7);
     6ec:	e0 e8       	ldi	r30, 0x80	; 128
     6ee:	f0 e0       	ldi	r31, 0x00	; 0
     6f0:	80 81       	ld	r24, Z
     6f2:	8f 77       	andi	r24, 0x7F	; 127
     6f4:	80 83       	st	Z, r24
		cbi(TIMER_INTERRUPT,TIMER_INTERRUPT_BIT);
     6f6:	ee e6       	ldi	r30, 0x6E	; 110
     6f8:	f0 e0       	ldi	r31, 0x00	; 0
     6fa:	80 81       	ld	r24, Z
     6fc:	8d 7f       	andi	r24, 0xFD	; 253
     6fe:	80 83       	st	Z, r24
		IR_count = 0;
     700:	10 92 cd 01 	sts	0x01CD, r1
     704:	10 92 cc 01 	sts	0x01CC, r1
		cbi(IR_LED_PORT,IR_LED_PIN);
     708:	29 98       	cbi	0x05, 1	; 5
		IR_isSending = 0;
     70a:	10 92 ca 01 	sts	0x01CA, r1
		IR_onSendFinished();
     70e:	9c df       	rcall	.-200    	; 0x648 <IR_onSendFinished>
	}
}
     710:	ff 91       	pop	r31
     712:	ef 91       	pop	r30
     714:	bf 91       	pop	r27
     716:	af 91       	pop	r26
     718:	9f 91       	pop	r25
     71a:	8f 91       	pop	r24
     71c:	7f 91       	pop	r23
     71e:	6f 91       	pop	r22
     720:	5f 91       	pop	r21
     722:	4f 91       	pop	r20
     724:	3f 91       	pop	r19
     726:	2f 91       	pop	r18
     728:	0f 90       	pop	r0
     72a:	0f be       	out	0x3f, r0	; 63
     72c:	0f 90       	pop	r0
     72e:	1f 90       	pop	r1
     730:	18 95       	reti

00000732 <IR_onReceived>:
void IR_onInitialize(){
	
}

void IR_onReceived(int cousumer,int data){
	IRrecv_flag = 1;
     732:	81 e0       	ldi	r24, 0x01	; 1
     734:	80 93 ba 01 	sts	0x01BA, r24
     738:	08 95       	ret

0000073a <__vector_13>:
	//sendStringLine(itoa(span,&ch,10));
}

//TIMER1のオーバーフローを受信終了とみなす
//IR_receive_rawの中身　0番目がゴミで奇数番目が送信元LEDがHIGHの時の時間だと思われる
ISR ( TIMER1_OVF_vect ) {
     73a:	1f 92       	push	r1
     73c:	0f 92       	push	r0
     73e:	0f b6       	in	r0, 0x3f	; 63
     740:	0f 92       	push	r0
     742:	11 24       	eor	r1, r1
     744:	2f 93       	push	r18
     746:	3f 93       	push	r19
     748:	4f 93       	push	r20
     74a:	5f 93       	push	r21
     74c:	6f 93       	push	r22
     74e:	7f 93       	push	r23
     750:	8f 93       	push	r24
     752:	9f 93       	push	r25
     754:	af 93       	push	r26
     756:	bf 93       	push	r27
     758:	ef 93       	push	r30
     75a:	ff 93       	push	r31
	if(IR_isReceiving){
     75c:	80 91 cb 01 	lds	r24, 0x01CB
     760:	88 23       	and	r24, r24
     762:	09 f4       	brne	.+2      	; 0x766 <__vector_13+0x2c>
     764:	a9 c1       	rjmp	.+850    	; 0xab8 <__vector_13+0x37e>
		IR_isReceiving = 0;
     766:	10 92 cb 01 	sts	0x01CB, r1
		if(IR_receivecount > 64) IR_receivecount = 0;
     76a:	80 91 d1 01 	lds	r24, 0x01D1
     76e:	81 34       	cpi	r24, 0x41	; 65
     770:	08 f4       	brcc	.+2      	; 0x774 <__vector_13+0x3a>
     772:	a2 c1       	rjmp	.+836    	; 0xab8 <__vector_13+0x37e>
     774:	10 92 d1 01 	sts	0x01D1, r1
		else return;
		if(1100 < IR_receive_raw[1] && IR_receive_raw[1] < 1200){//1,2番目はヘッダー
     778:	80 91 d7 02 	lds	r24, 0x02D7
     77c:	90 91 d8 02 	lds	r25, 0x02D8
     780:	8d 34       	cpi	r24, 0x4D	; 77
     782:	94 40       	sbci	r25, 0x04	; 4
     784:	0c f4       	brge	.+2      	; 0x788 <__vector_13+0x4e>
     786:	98 c1       	rjmp	.+816    	; 0xab8 <__vector_13+0x37e>
     788:	80 91 d7 02 	lds	r24, 0x02D7
     78c:	90 91 d8 02 	lds	r25, 0x02D8
     790:	80 3b       	cpi	r24, 0xB0	; 176
     792:	94 40       	sbci	r25, 0x04	; 4
     794:	0c f0       	brlt	.+2      	; 0x798 <__vector_13+0x5e>
     796:	90 c1       	rjmp	.+800    	; 0xab8 <__vector_13+0x37e>
			if(500 < IR_receive_raw[2] && IR_receive_raw[2] < 600){//多分NECフォーマットだと判別できる
     798:	80 91 d9 02 	lds	r24, 0x02D9
     79c:	90 91 da 02 	lds	r25, 0x02DA
     7a0:	85 3f       	cpi	r24, 0xF5	; 245
     7a2:	91 40       	sbci	r25, 0x01	; 1
     7a4:	0c f4       	brge	.+2      	; 0x7a8 <__vector_13+0x6e>
     7a6:	88 c1       	rjmp	.+784    	; 0xab8 <__vector_13+0x37e>
     7a8:	80 91 d9 02 	lds	r24, 0x02D9
     7ac:	90 91 da 02 	lds	r25, 0x02DA
     7b0:	88 35       	cpi	r24, 0x58	; 88
     7b2:	92 40       	sbci	r25, 0x02	; 2
     7b4:	0c f0       	brlt	.+2      	; 0x7b8 <__vector_13+0x7e>
     7b6:	80 c1       	rjmp	.+768    	; 0xab8 <__vector_13+0x37e>
				char cursor = 3;
				for(unsigned char i=15;i <= 15;i--){
					if(55 < IR_receive_raw[cursor] && IR_receive_raw[cursor] < 75){
     7b8:	80 91 db 02 	lds	r24, 0x02DB
     7bc:	90 91 dc 02 	lds	r25, 0x02DC
     7c0:	c8 97       	sbiw	r24, 0x38	; 56
     7c2:	0c f4       	brge	.+2      	; 0x7c6 <__vector_13+0x8c>
     7c4:	79 c1       	rjmp	.+754    	; 0xab8 <__vector_13+0x37e>
     7c6:	80 91 db 02 	lds	r24, 0x02DB
     7ca:	90 91 dc 02 	lds	r25, 0x02DC
     7ce:	8b 34       	cpi	r24, 0x4B	; 75
     7d0:	91 05       	cpc	r25, r1
     7d2:	cc f0       	brlt	.+50     	; 0x806 <__vector_13+0xcc>
     7d4:	71 c1       	rjmp	.+738    	; 0xab8 <__vector_13+0x37e>
     7d6:	86 2f       	mov	r24, r22
     7d8:	90 e0       	ldi	r25, 0x00	; 0
     7da:	fc 01       	movw	r30, r24
     7dc:	ee 0f       	add	r30, r30
     7de:	ff 1f       	adc	r31, r31
     7e0:	eb 52       	subi	r30, 0x2B	; 43
     7e2:	fd 4f       	sbci	r31, 0xFD	; 253
     7e4:	20 81       	ld	r18, Z
     7e6:	31 81       	ldd	r19, Z+1	; 0x01
     7e8:	28 33       	cpi	r18, 0x38	; 56
     7ea:	31 05       	cpc	r19, r1
     7ec:	0c f4       	brge	.+2      	; 0x7f0 <__vector_13+0xb6>
     7ee:	64 c1       	rjmp	.+712    	; 0xab8 <__vector_13+0x37e>
     7f0:	fc 01       	movw	r30, r24
     7f2:	ee 0f       	add	r30, r30
     7f4:	ff 1f       	adc	r31, r31
     7f6:	eb 52       	subi	r30, 0x2B	; 43
     7f8:	fd 4f       	sbci	r31, 0xFD	; 253
     7fa:	80 81       	ld	r24, Z
     7fc:	91 81       	ldd	r25, Z+1	; 0x01
     7fe:	8b 34       	cpi	r24, 0x4B	; 75
     800:	91 05       	cpc	r25, r1
     802:	2c f0       	brlt	.+10     	; 0x80e <__vector_13+0xd4>
     804:	59 c1       	rjmp	.+690    	; 0xab8 <__vector_13+0x37e>
     806:	7f e0       	ldi	r23, 0x0F	; 15
     808:	63 e0       	ldi	r22, 0x03	; 3
						cursor++;
						if(55 < IR_receive_raw[cursor] && IR_receive_raw[cursor] < 75){
							cbi(IR_received_consumer,i);
						}
						else if(195 < IR_receive_raw[cursor] && IR_receive_raw[cursor] < 210){
							sbi(IR_received_consumer,i);
     80a:	41 e0       	ldi	r20, 0x01	; 1
     80c:	50 e0       	ldi	r21, 0x00	; 0
		if(1100 < IR_receive_raw[1] && IR_receive_raw[1] < 1200){//1,2番目はヘッダー
			if(500 < IR_receive_raw[2] && IR_receive_raw[2] < 600){//多分NECフォーマットだと判別できる
				char cursor = 3;
				for(unsigned char i=15;i <= 15;i--){
					if(55 < IR_receive_raw[cursor] && IR_receive_raw[cursor] < 75){
						cursor++;
     80e:	86 2f       	mov	r24, r22
     810:	8f 5f       	subi	r24, 0xFF	; 255
						if(55 < IR_receive_raw[cursor] && IR_receive_raw[cursor] < 75){
     812:	90 e0       	ldi	r25, 0x00	; 0
     814:	fc 01       	movw	r30, r24
     816:	ee 0f       	add	r30, r30
     818:	ff 1f       	adc	r31, r31
     81a:	eb 52       	subi	r30, 0x2B	; 43
     81c:	fd 4f       	sbci	r31, 0xFD	; 253
     81e:	20 81       	ld	r18, Z
     820:	31 81       	ldd	r19, Z+1	; 0x01
     822:	28 33       	cpi	r18, 0x38	; 56
     824:	31 05       	cpc	r19, r1
     826:	f4 f0       	brlt	.+60     	; 0x864 <__vector_13+0x12a>
     828:	fc 01       	movw	r30, r24
     82a:	ee 0f       	add	r30, r30
     82c:	ff 1f       	adc	r31, r31
     82e:	eb 52       	subi	r30, 0x2B	; 43
     830:	fd 4f       	sbci	r31, 0xFD	; 253
     832:	20 81       	ld	r18, Z
     834:	31 81       	ldd	r19, Z+1	; 0x01
     836:	2b 34       	cpi	r18, 0x4B	; 75
     838:	31 05       	cpc	r19, r1
     83a:	a4 f4       	brge	.+40     	; 0x864 <__vector_13+0x12a>
							cbi(IR_received_consumer,i);
     83c:	20 91 cf 01 	lds	r18, 0x01CF
     840:	30 91 d0 01 	lds	r19, 0x01D0
     844:	ca 01       	movw	r24, r20
     846:	07 2e       	mov	r0, r23
     848:	02 c0       	rjmp	.+4      	; 0x84e <__vector_13+0x114>
     84a:	88 0f       	add	r24, r24
     84c:	99 1f       	adc	r25, r25
     84e:	0a 94       	dec	r0
     850:	e2 f7       	brpl	.-8      	; 0x84a <__vector_13+0x110>
     852:	80 95       	com	r24
     854:	90 95       	com	r25
     856:	82 23       	and	r24, r18
     858:	93 23       	and	r25, r19
     85a:	90 93 d0 01 	sts	0x01D0, r25
     85e:	80 93 cf 01 	sts	0x01CF, r24
     862:	25 c0       	rjmp	.+74     	; 0x8ae <__vector_13+0x174>
						}
						else if(195 < IR_receive_raw[cursor] && IR_receive_raw[cursor] < 210){
     864:	fc 01       	movw	r30, r24
     866:	ee 0f       	add	r30, r30
     868:	ff 1f       	adc	r31, r31
     86a:	eb 52       	subi	r30, 0x2B	; 43
     86c:	fd 4f       	sbci	r31, 0xFD	; 253
     86e:	20 81       	ld	r18, Z
     870:	31 81       	ldd	r19, Z+1	; 0x01
     872:	24 3c       	cpi	r18, 0xC4	; 196
     874:	31 05       	cpc	r19, r1
     876:	dc f0       	brlt	.+54     	; 0x8ae <__vector_13+0x174>
     878:	fc 01       	movw	r30, r24
     87a:	ee 0f       	add	r30, r30
     87c:	ff 1f       	adc	r31, r31
     87e:	eb 52       	subi	r30, 0x2B	; 43
     880:	fd 4f       	sbci	r31, 0xFD	; 253
     882:	80 81       	ld	r24, Z
     884:	91 81       	ldd	r25, Z+1	; 0x01
     886:	82 3d       	cpi	r24, 0xD2	; 210
     888:	91 05       	cpc	r25, r1
     88a:	8c f4       	brge	.+34     	; 0x8ae <__vector_13+0x174>
							sbi(IR_received_consumer,i);
     88c:	80 91 cf 01 	lds	r24, 0x01CF
     890:	90 91 d0 01 	lds	r25, 0x01D0
     894:	9a 01       	movw	r18, r20
     896:	07 2e       	mov	r0, r23
     898:	02 c0       	rjmp	.+4      	; 0x89e <__vector_13+0x164>
     89a:	22 0f       	add	r18, r18
     89c:	33 1f       	adc	r19, r19
     89e:	0a 94       	dec	r0
     8a0:	e2 f7       	brpl	.-8      	; 0x89a <__vector_13+0x160>
     8a2:	82 2b       	or	r24, r18
     8a4:	93 2b       	or	r25, r19
     8a6:	90 93 d0 01 	sts	0x01D0, r25
     8aa:	80 93 cf 01 	sts	0x01CF, r24
						}
						cursor++;
     8ae:	6e 5f       	subi	r22, 0xFE	; 254
		if(IR_receivecount > 64) IR_receivecount = 0;
		else return;
		if(1100 < IR_receive_raw[1] && IR_receive_raw[1] < 1200){//1,2番目はヘッダー
			if(500 < IR_receive_raw[2] && IR_receive_raw[2] < 600){//多分NECフォーマットだと判別できる
				char cursor = 3;
				for(unsigned char i=15;i <= 15;i--){
     8b0:	71 50       	subi	r23, 0x01	; 1
     8b2:	70 31       	cpi	r23, 0x10	; 16
     8b4:	08 f4       	brcc	.+2      	; 0x8b8 <__vector_13+0x17e>
     8b6:	8f cf       	rjmp	.-226    	; 0x7d6 <__vector_13+0x9c>
					else{
						return;
					}
				}
				for(unsigned char i=7;i < 8;i--){
					if(55 < IR_receive_raw[cursor] && IR_receive_raw[cursor] < 75){
     8b8:	86 2f       	mov	r24, r22
     8ba:	90 e0       	ldi	r25, 0x00	; 0
     8bc:	fc 01       	movw	r30, r24
     8be:	ee 0f       	add	r30, r30
     8c0:	ff 1f       	adc	r31, r31
     8c2:	eb 52       	subi	r30, 0x2B	; 43
     8c4:	fd 4f       	sbci	r31, 0xFD	; 253
     8c6:	20 81       	ld	r18, Z
     8c8:	31 81       	ldd	r19, Z+1	; 0x01
     8ca:	28 33       	cpi	r18, 0x38	; 56
     8cc:	31 05       	cpc	r19, r1
     8ce:	0c f4       	brge	.+2      	; 0x8d2 <__vector_13+0x198>
     8d0:	f3 c0       	rjmp	.+486    	; 0xab8 <__vector_13+0x37e>
     8d2:	fc 01       	movw	r30, r24
     8d4:	ee 0f       	add	r30, r30
     8d6:	ff 1f       	adc	r31, r31
     8d8:	eb 52       	subi	r30, 0x2B	; 43
     8da:	fd 4f       	sbci	r31, 0xFD	; 253
     8dc:	80 81       	ld	r24, Z
     8de:	91 81       	ldd	r25, Z+1	; 0x01
     8e0:	8b 34       	cpi	r24, 0x4B	; 75
     8e2:	91 05       	cpc	r25, r1
     8e4:	cc f0       	brlt	.+50     	; 0x918 <__vector_13+0x1de>
     8e6:	e8 c0       	rjmp	.+464    	; 0xab8 <__vector_13+0x37e>
     8e8:	86 2f       	mov	r24, r22
     8ea:	90 e0       	ldi	r25, 0x00	; 0
     8ec:	fc 01       	movw	r30, r24
     8ee:	ee 0f       	add	r30, r30
     8f0:	ff 1f       	adc	r31, r31
     8f2:	eb 52       	subi	r30, 0x2B	; 43
     8f4:	fd 4f       	sbci	r31, 0xFD	; 253
     8f6:	20 81       	ld	r18, Z
     8f8:	31 81       	ldd	r19, Z+1	; 0x01
     8fa:	28 33       	cpi	r18, 0x38	; 56
     8fc:	31 05       	cpc	r19, r1
     8fe:	0c f4       	brge	.+2      	; 0x902 <__vector_13+0x1c8>
     900:	db c0       	rjmp	.+438    	; 0xab8 <__vector_13+0x37e>
     902:	fc 01       	movw	r30, r24
     904:	ee 0f       	add	r30, r30
     906:	ff 1f       	adc	r31, r31
     908:	eb 52       	subi	r30, 0x2B	; 43
     90a:	fd 4f       	sbci	r31, 0xFD	; 253
     90c:	80 81       	ld	r24, Z
     90e:	91 81       	ldd	r25, Z+1	; 0x01
     910:	8b 34       	cpi	r24, 0x4B	; 75
     912:	91 05       	cpc	r25, r1
     914:	24 f0       	brlt	.+8      	; 0x91e <__vector_13+0x1e4>
     916:	d0 c0       	rjmp	.+416    	; 0xab8 <__vector_13+0x37e>
     918:	77 e0       	ldi	r23, 0x07	; 7
						if(55 < IR_receive_raw[cursor] && IR_receive_raw[cursor] < 75){
							cbi(IR_received_data,i);
							//sendChar('0');
						}
						else if(195 < IR_receive_raw[cursor] && IR_receive_raw[cursor] < 210){
							sbi(IR_received_data,i);
     91a:	41 e0       	ldi	r20, 0x01	; 1
     91c:	50 e0       	ldi	r21, 0x00	; 0
						return;
					}
				}
				for(unsigned char i=7;i < 8;i--){
					if(55 < IR_receive_raw[cursor] && IR_receive_raw[cursor] < 75){
						cursor++;
     91e:	86 2f       	mov	r24, r22
     920:	8f 5f       	subi	r24, 0xFF	; 255
						if(55 < IR_receive_raw[cursor] && IR_receive_raw[cursor] < 75){
     922:	90 e0       	ldi	r25, 0x00	; 0
     924:	fc 01       	movw	r30, r24
     926:	ee 0f       	add	r30, r30
     928:	ff 1f       	adc	r31, r31
     92a:	eb 52       	subi	r30, 0x2B	; 43
     92c:	fd 4f       	sbci	r31, 0xFD	; 253
     92e:	20 81       	ld	r18, Z
     930:	31 81       	ldd	r19, Z+1	; 0x01
     932:	28 33       	cpi	r18, 0x38	; 56
     934:	31 05       	cpc	r19, r1
     936:	c4 f0       	brlt	.+48     	; 0x968 <__vector_13+0x22e>
     938:	fc 01       	movw	r30, r24
     93a:	ee 0f       	add	r30, r30
     93c:	ff 1f       	adc	r31, r31
     93e:	eb 52       	subi	r30, 0x2B	; 43
     940:	fd 4f       	sbci	r31, 0xFD	; 253
     942:	20 81       	ld	r18, Z
     944:	31 81       	ldd	r19, Z+1	; 0x01
     946:	2b 34       	cpi	r18, 0x4B	; 75
     948:	31 05       	cpc	r19, r1
     94a:	74 f4       	brge	.+28     	; 0x968 <__vector_13+0x22e>
							cbi(IR_received_data,i);
     94c:	20 91 ce 01 	lds	r18, 0x01CE
     950:	ca 01       	movw	r24, r20
     952:	07 2e       	mov	r0, r23
     954:	02 c0       	rjmp	.+4      	; 0x95a <__vector_13+0x220>
     956:	88 0f       	add	r24, r24
     958:	99 1f       	adc	r25, r25
     95a:	0a 94       	dec	r0
     95c:	e2 f7       	brpl	.-8      	; 0x956 <__vector_13+0x21c>
     95e:	80 95       	com	r24
     960:	82 23       	and	r24, r18
     962:	80 93 ce 01 	sts	0x01CE, r24
     966:	20 c0       	rjmp	.+64     	; 0x9a8 <__vector_13+0x26e>
							//sendChar('0');
						}
						else if(195 < IR_receive_raw[cursor] && IR_receive_raw[cursor] < 210){
     968:	fc 01       	movw	r30, r24
     96a:	ee 0f       	add	r30, r30
     96c:	ff 1f       	adc	r31, r31
     96e:	eb 52       	subi	r30, 0x2B	; 43
     970:	fd 4f       	sbci	r31, 0xFD	; 253
     972:	20 81       	ld	r18, Z
     974:	31 81       	ldd	r19, Z+1	; 0x01
     976:	24 3c       	cpi	r18, 0xC4	; 196
     978:	31 05       	cpc	r19, r1
     97a:	b4 f0       	brlt	.+44     	; 0x9a8 <__vector_13+0x26e>
     97c:	fc 01       	movw	r30, r24
     97e:	ee 0f       	add	r30, r30
     980:	ff 1f       	adc	r31, r31
     982:	eb 52       	subi	r30, 0x2B	; 43
     984:	fd 4f       	sbci	r31, 0xFD	; 253
     986:	80 81       	ld	r24, Z
     988:	91 81       	ldd	r25, Z+1	; 0x01
     98a:	82 3d       	cpi	r24, 0xD2	; 210
     98c:	91 05       	cpc	r25, r1
     98e:	64 f4       	brge	.+24     	; 0x9a8 <__vector_13+0x26e>
							sbi(IR_received_data,i);
     990:	20 91 ce 01 	lds	r18, 0x01CE
     994:	ca 01       	movw	r24, r20
     996:	07 2e       	mov	r0, r23
     998:	02 c0       	rjmp	.+4      	; 0x99e <__vector_13+0x264>
     99a:	88 0f       	add	r24, r24
     99c:	99 1f       	adc	r25, r25
     99e:	0a 94       	dec	r0
     9a0:	e2 f7       	brpl	.-8      	; 0x99a <__vector_13+0x260>
     9a2:	82 2b       	or	r24, r18
     9a4:	80 93 ce 01 	sts	0x01CE, r24
							//sendChar('1');
						}
						cursor++;
     9a8:	6e 5f       	subi	r22, 0xFE	; 254
					}
					else{
						return;
					}
				}
				for(unsigned char i=7;i < 8;i--){
     9aa:	71 50       	subi	r23, 0x01	; 1
     9ac:	78 30       	cpi	r23, 0x08	; 8
     9ae:	08 f4       	brcc	.+2      	; 0x9b2 <__vector_13+0x278>
     9b0:	9b cf       	rjmp	.-202    	; 0x8e8 <__vector_13+0x1ae>
						return;
					}
				}
				char data_parity = 0;
				for(unsigned char i=7;i < 8;i--){
					if(55 < IR_receive_raw[cursor] && IR_receive_raw[cursor] < 75){
     9b2:	86 2f       	mov	r24, r22
     9b4:	90 e0       	ldi	r25, 0x00	; 0
     9b6:	fc 01       	movw	r30, r24
     9b8:	ee 0f       	add	r30, r30
     9ba:	ff 1f       	adc	r31, r31
     9bc:	eb 52       	subi	r30, 0x2B	; 43
     9be:	fd 4f       	sbci	r31, 0xFD	; 253
     9c0:	20 81       	ld	r18, Z
     9c2:	31 81       	ldd	r19, Z+1	; 0x01
     9c4:	28 33       	cpi	r18, 0x38	; 56
     9c6:	31 05       	cpc	r19, r1
     9c8:	0c f4       	brge	.+2      	; 0x9cc <__vector_13+0x292>
     9ca:	76 c0       	rjmp	.+236    	; 0xab8 <__vector_13+0x37e>
     9cc:	fc 01       	movw	r30, r24
     9ce:	ee 0f       	add	r30, r30
     9d0:	ff 1f       	adc	r31, r31
     9d2:	eb 52       	subi	r30, 0x2B	; 43
     9d4:	fd 4f       	sbci	r31, 0xFD	; 253
     9d6:	80 81       	ld	r24, Z
     9d8:	91 81       	ldd	r25, Z+1	; 0x01
     9da:	8b 34       	cpi	r24, 0x4B	; 75
     9dc:	91 05       	cpc	r25, r1
     9de:	cc f0       	brlt	.+50     	; 0xa12 <__vector_13+0x2d8>
     9e0:	6b c0       	rjmp	.+214    	; 0xab8 <__vector_13+0x37e>
     9e2:	86 2f       	mov	r24, r22
     9e4:	90 e0       	ldi	r25, 0x00	; 0
     9e6:	fc 01       	movw	r30, r24
     9e8:	ee 0f       	add	r30, r30
     9ea:	ff 1f       	adc	r31, r31
     9ec:	eb 52       	subi	r30, 0x2B	; 43
     9ee:	fd 4f       	sbci	r31, 0xFD	; 253
     9f0:	20 81       	ld	r18, Z
     9f2:	31 81       	ldd	r19, Z+1	; 0x01
     9f4:	28 33       	cpi	r18, 0x38	; 56
     9f6:	31 05       	cpc	r19, r1
     9f8:	0c f4       	brge	.+2      	; 0x9fc <__vector_13+0x2c2>
     9fa:	5e c0       	rjmp	.+188    	; 0xab8 <__vector_13+0x37e>
     9fc:	fc 01       	movw	r30, r24
     9fe:	ee 0f       	add	r30, r30
     a00:	ff 1f       	adc	r31, r31
     a02:	eb 52       	subi	r30, 0x2B	; 43
     a04:	fd 4f       	sbci	r31, 0xFD	; 253
     a06:	80 81       	ld	r24, Z
     a08:	91 81       	ldd	r25, Z+1	; 0x01
     a0a:	8b 34       	cpi	r24, 0x4B	; 75
     a0c:	91 05       	cpc	r25, r1
     a0e:	2c f0       	brlt	.+10     	; 0xa1a <__vector_13+0x2e0>
     a10:	53 c0       	rjmp	.+166    	; 0xab8 <__vector_13+0x37e>
     a12:	77 e0       	ldi	r23, 0x07	; 7
     a14:	a0 e0       	ldi	r26, 0x00	; 0
						if(55 < IR_receive_raw[cursor] && IR_receive_raw[cursor] < 75){
							cbi(data_parity,i);
							//sendChar('0');
						}
						else if(195 < IR_receive_raw[cursor] && IR_receive_raw[cursor] < 210){
							sbi(data_parity,i);
     a16:	41 e0       	ldi	r20, 0x01	; 1
     a18:	50 e0       	ldi	r21, 0x00	; 0
					}
				}
				char data_parity = 0;
				for(unsigned char i=7;i < 8;i--){
					if(55 < IR_receive_raw[cursor] && IR_receive_raw[cursor] < 75){
						cursor++;
     a1a:	86 2f       	mov	r24, r22
     a1c:	8f 5f       	subi	r24, 0xFF	; 255
						if(55 < IR_receive_raw[cursor] && IR_receive_raw[cursor] < 75){
     a1e:	90 e0       	ldi	r25, 0x00	; 0
     a20:	fc 01       	movw	r30, r24
     a22:	ee 0f       	add	r30, r30
     a24:	ff 1f       	adc	r31, r31
     a26:	eb 52       	subi	r30, 0x2B	; 43
     a28:	fd 4f       	sbci	r31, 0xFD	; 253
     a2a:	20 81       	ld	r18, Z
     a2c:	31 81       	ldd	r19, Z+1	; 0x01
     a2e:	28 33       	cpi	r18, 0x38	; 56
     a30:	31 05       	cpc	r19, r1
     a32:	a4 f0       	brlt	.+40     	; 0xa5c <__vector_13+0x322>
     a34:	fc 01       	movw	r30, r24
     a36:	ee 0f       	add	r30, r30
     a38:	ff 1f       	adc	r31, r31
     a3a:	eb 52       	subi	r30, 0x2B	; 43
     a3c:	fd 4f       	sbci	r31, 0xFD	; 253
     a3e:	20 81       	ld	r18, Z
     a40:	31 81       	ldd	r19, Z+1	; 0x01
     a42:	2b 34       	cpi	r18, 0x4B	; 75
     a44:	31 05       	cpc	r19, r1
     a46:	54 f4       	brge	.+20     	; 0xa5c <__vector_13+0x322>
							cbi(data_parity,i);
     a48:	ca 01       	movw	r24, r20
     a4a:	07 2e       	mov	r0, r23
     a4c:	02 c0       	rjmp	.+4      	; 0xa52 <__vector_13+0x318>
     a4e:	88 0f       	add	r24, r24
     a50:	99 1f       	adc	r25, r25
     a52:	0a 94       	dec	r0
     a54:	e2 f7       	brpl	.-8      	; 0xa4e <__vector_13+0x314>
     a56:	80 95       	com	r24
     a58:	a8 23       	and	r26, r24
     a5a:	1c c0       	rjmp	.+56     	; 0xa94 <__vector_13+0x35a>
							//sendChar('0');
						}
						else if(195 < IR_receive_raw[cursor] && IR_receive_raw[cursor] < 210){
     a5c:	fc 01       	movw	r30, r24
     a5e:	ee 0f       	add	r30, r30
     a60:	ff 1f       	adc	r31, r31
     a62:	eb 52       	subi	r30, 0x2B	; 43
     a64:	fd 4f       	sbci	r31, 0xFD	; 253
     a66:	20 81       	ld	r18, Z
     a68:	31 81       	ldd	r19, Z+1	; 0x01
     a6a:	24 3c       	cpi	r18, 0xC4	; 196
     a6c:	31 05       	cpc	r19, r1
     a6e:	94 f0       	brlt	.+36     	; 0xa94 <__vector_13+0x35a>
     a70:	fc 01       	movw	r30, r24
     a72:	ee 0f       	add	r30, r30
     a74:	ff 1f       	adc	r31, r31
     a76:	eb 52       	subi	r30, 0x2B	; 43
     a78:	fd 4f       	sbci	r31, 0xFD	; 253
     a7a:	80 81       	ld	r24, Z
     a7c:	91 81       	ldd	r25, Z+1	; 0x01
     a7e:	82 3d       	cpi	r24, 0xD2	; 210
     a80:	91 05       	cpc	r25, r1
     a82:	44 f4       	brge	.+16     	; 0xa94 <__vector_13+0x35a>
							sbi(data_parity,i);
     a84:	ca 01       	movw	r24, r20
     a86:	07 2e       	mov	r0, r23
     a88:	02 c0       	rjmp	.+4      	; 0xa8e <__vector_13+0x354>
     a8a:	88 0f       	add	r24, r24
     a8c:	99 1f       	adc	r25, r25
     a8e:	0a 94       	dec	r0
     a90:	e2 f7       	brpl	.-8      	; 0xa8a <__vector_13+0x350>
     a92:	a8 2b       	or	r26, r24
							//sendChar('1');
						}
						cursor++;
     a94:	6e 5f       	subi	r22, 0xFE	; 254
					else{
						return;
					}
				}
				char data_parity = 0;
				for(unsigned char i=7;i < 8;i--){
     a96:	71 50       	subi	r23, 0x01	; 1
     a98:	78 30       	cpi	r23, 0x08	; 8
     a9a:	08 f4       	brcc	.+2      	; 0xa9e <__vector_13+0x364>
     a9c:	a2 cf       	rjmp	.-188    	; 0x9e2 <__vector_13+0x2a8>
					else{
						return;
					}
				}
				char ch;
				if(IR_received_data != (char)~data_parity) return;
     a9e:	80 91 ce 01 	lds	r24, 0x01CE
     aa2:	a0 95       	com	r26
     aa4:	a8 13       	cpse	r26, r24
     aa6:	08 c0       	rjmp	.+16     	; 0xab8 <__vector_13+0x37e>
				IR_onReceived(IR_received_consumer,IR_received_data);
     aa8:	60 91 ce 01 	lds	r22, 0x01CE
     aac:	80 91 cf 01 	lds	r24, 0x01CF
     ab0:	90 91 d0 01 	lds	r25, 0x01D0
     ab4:	70 e0       	ldi	r23, 0x00	; 0
     ab6:	3d de       	rcall	.-902    	; 0x732 <IR_onReceived>
			}
		}
	}
}
     ab8:	ff 91       	pop	r31
     aba:	ef 91       	pop	r30
     abc:	bf 91       	pop	r27
     abe:	af 91       	pop	r26
     ac0:	9f 91       	pop	r25
     ac2:	8f 91       	pop	r24
     ac4:	7f 91       	pop	r23
     ac6:	6f 91       	pop	r22
     ac8:	5f 91       	pop	r21
     aca:	4f 91       	pop	r20
     acc:	3f 91       	pop	r19
     ace:	2f 91       	pop	r18
     ad0:	0f 90       	pop	r0
     ad2:	0f be       	out	0x3f, r0	; 63
     ad4:	0f 90       	pop	r0
     ad6:	1f 90       	pop	r1
     ad8:	18 95       	reti

00000ada <isRaspiActive>:
	for(int i=0;i<ms;i++) wait(1);
	cbi(TCCR1A,5);
	IR_initialize(0);
}

char isRaspiActive(){//割り込み処理内で呼び出されるとUSART_TX_vectとの多重割り込みになりマズい
     ada:	cf 93       	push	r28
     adc:	df 93       	push	r29
	//ask("OK?",254);
	char *mes = ask("Active?",10);
     ade:	6a e0       	ldi	r22, 0x0A	; 10
     ae0:	86 e0       	ldi	r24, 0x06	; 6
     ae2:	91 e0       	ldi	r25, 0x01	; 1
     ae4:	f8 dc       	rcall	.-1552   	; 0x4d6 <ask>
     ae6:	ec 01       	movw	r28, r24
	sendStringLine(mes);
     ae8:	46 dc       	rcall	.-1908   	; 0x376 <sendStringLine>
	return *mes != '\0';
     aea:	81 e0       	ldi	r24, 0x01	; 1
     aec:	98 81       	ld	r25, Y
     aee:	91 11       	cpse	r25, r1
     af0:	01 c0       	rjmp	.+2      	; 0xaf4 <isRaspiActive+0x1a>
     af2:	80 e0       	ldi	r24, 0x00	; 0
}
     af4:	df 91       	pop	r29
     af6:	cf 91       	pop	r28
     af8:	08 95       	ret

00000afa <raspi_wake>:

void raspi_wake(){
	if(!isRaspiActive()) {
     afa:	ef df       	rcall	.-34     	; 0xada <isRaspiActive>
     afc:	81 11       	cpse	r24, r1
     afe:	0c c0       	rjmp	.+24     	; 0xb18 <raspi_wake+0x1e>
		sendStringLine("Raspi Wake!");
     b00:	8e e0       	ldi	r24, 0x0E	; 14
     b02:	91 e0       	ldi	r25, 0x01	; 1
     b04:	38 dc       	rcall	.-1936   	; 0x376 <sendStringLine>
		sbi(PORTB,PB4);
     b06:	2c 9a       	sbi	0x05, 4	; 5
     b08:	89 ef       	ldi	r24, 0xF9	; 249
     b0a:	90 e0       	ldi	r25, 0x00	; 0
     b0c:	01 97       	sbiw	r24, 0x01	; 1
     b0e:	f1 f7       	brne	.-4      	; 0xb0c <raspi_wake+0x12>
     b10:	00 c0       	rjmp	.+0      	; 0xb12 <raspi_wake+0x18>
     b12:	00 00       	nop
		wait(1);
		cbi(PORTB,PB4);
     b14:	2c 98       	cbi	0x05, 4	; 5
     b16:	03 c0       	rjmp	.+6      	; 0xb1e <raspi_wake+0x24>
	}
	else sendStringLine("Raspi is already active.");
     b18:	8a e1       	ldi	r24, 0x1A	; 26
     b1a:	91 e0       	ldi	r25, 0x01	; 1
     b1c:	2c dc       	rcall	.-1960   	; 0x376 <sendStringLine>
	raspi_wake_flag = 0;
     b1e:	10 92 bd 01 	sts	0x01BD, r1
     b22:	08 95       	ret

00000b24 <raspi_shutdown>:
}

void raspi_shutdown(){
	if(isRaspiActive()) sendStringLine("Shutdown");
     b24:	da df       	rcall	.-76     	; 0xada <isRaspiActive>
     b26:	88 23       	and	r24, r24
     b28:	21 f0       	breq	.+8      	; 0xb32 <raspi_shutdown+0xe>
     b2a:	83 e3       	ldi	r24, 0x33	; 51
     b2c:	91 e0       	ldi	r25, 0x01	; 1
     b2e:	23 dc       	rcall	.-1978   	; 0x376 <sendStringLine>
     b30:	03 c0       	rjmp	.+6      	; 0xb38 <raspi_shutdown+0x14>
	else sendStringLine("Raspi is already in halt.");
     b32:	8c e3       	ldi	r24, 0x3C	; 60
     b34:	91 e0       	ldi	r25, 0x01	; 1
     b36:	1f dc       	rcall	.-1986   	; 0x376 <sendStringLine>
	//sbi(PORTD,PD7);
	raspi_shutdown_flag = 0;
     b38:	10 92 be 01 	sts	0x01BE, r1
     b3c:	08 95       	ret

00000b3e <Mode_command>:
}

void Mode_command(){
     b3e:	cf 92       	push	r12
     b40:	df 92       	push	r13
     b42:	ef 92       	push	r14
     b44:	ff 92       	push	r15
     b46:	0f 93       	push	r16
     b48:	1f 93       	push	r17
     b4a:	cf 93       	push	r28
     b4c:	df 93       	push	r29
     b4e:	cd b7       	in	r28, 0x3d	; 61
     b50:	de b7       	in	r29, 0x3e	; 62
     b52:	c0 55       	subi	r28, 0x50	; 80
     b54:	d1 09       	sbc	r29, r1
     b56:	0f b6       	in	r0, 0x3f	; 63
     b58:	f8 94       	cli
     b5a:	de bf       	out	0x3e, r29	; 62
     b5c:	0f be       	out	0x3f, r0	; 63
     b5e:	cd bf       	out	0x3d, r28	; 61
	char *message = ask("Command?",100);
     b60:	64 e6       	ldi	r22, 0x64	; 100
     b62:	86 e5       	ldi	r24, 0x56	; 86
     b64:	91 e0       	ldi	r25, 0x01	; 1
     b66:	b7 dc       	rcall	.-1682   	; 0x4d6 <ask>
     b68:	7c 01       	movw	r14, r24
	sendStringLine(message);
     b6a:	05 dc       	rcall	.-2038   	; 0x376 <sendStringLine>
	if(equal(message,"ir")){//IR
     b6c:	6f e5       	ldi	r22, 0x5F	; 95
     b6e:	71 e0       	ldi	r23, 0x01	; 1
     b70:	c7 01       	movw	r24, r14
     b72:	c8 dc       	rcall	.-1648   	; 0x504 <equal>
     b74:	88 23       	and	r24, r24
     b76:	d9 f1       	breq	.+118    	; 0xbee <Mode_command+0xb0>
		message = ask("Type?",100);
     b78:	64 e6       	ldi	r22, 0x64	; 100
     b7a:	82 e6       	ldi	r24, 0x62	; 98
     b7c:	91 e0       	ldi	r25, 0x01	; 1
     b7e:	ab dc       	rcall	.-1706   	; 0x4d6 <ask>
     b80:	8c 01       	movw	r16, r24
		if(equal(message,"nec")){
     b82:	68 e6       	ldi	r22, 0x68	; 104
     b84:	71 e0       	ldi	r23, 0x01	; 1
     b86:	be dc       	rcall	.-1668   	; 0x504 <equal>
     b88:	88 23       	and	r24, r24
     b8a:	39 f1       	breq	.+78     	; 0xbda <Mode_command+0x9c>
			sendStringLine("Data in NEC format");
     b8c:	8c e6       	ldi	r24, 0x6C	; 108
     b8e:	91 e0       	ldi	r25, 0x01	; 1
     b90:	f2 db       	rcall	.-2076   	; 0x376 <sendStringLine>
			char customerc[32];
			strcpy(customerc,ask("Customer code?(Base:16)",100));
     b92:	64 e6       	ldi	r22, 0x64	; 100
     b94:	8f e7       	ldi	r24, 0x7F	; 127
     b96:	91 e0       	ldi	r25, 0x01	; 1
     b98:	9e dc       	rcall	.-1732   	; 0x4d6 <ask>
     b9a:	bc 01       	movw	r22, r24
     b9c:	ce 01       	movw	r24, r28
     b9e:	81 96       	adiw	r24, 0x21	; 33
     ba0:	84 d2       	rcall	.+1288   	; 0x10aa <strcpy>
			char datac[32];
			strcpy(datac,ask("Data?(Base:16)",100));
     ba2:	64 e6       	ldi	r22, 0x64	; 100
     ba4:	87 e9       	ldi	r24, 0x97	; 151
     ba6:	91 e0       	ldi	r25, 0x01	; 1
     ba8:	96 dc       	rcall	.-1748   	; 0x4d6 <ask>
     baa:	bc 01       	movw	r22, r24
     bac:	ce 01       	movw	r24, r28
     bae:	01 96       	adiw	r24, 0x01	; 1
     bb0:	7c d2       	rcall	.+1272   	; 0x10aa <strcpy>
			char ends[16];
			int customer = (int)strtol(customerc,&ends,16);
     bb2:	40 e1       	ldi	r20, 0x10	; 16
     bb4:	50 e0       	ldi	r21, 0x00	; 0
     bb6:	be 01       	movw	r22, r28
     bb8:	6f 5b       	subi	r22, 0xBF	; 191
     bba:	7f 4f       	sbci	r23, 0xFF	; 255
     bbc:	ce 01       	movw	r24, r28
     bbe:	81 96       	adiw	r24, 0x21	; 33
     bc0:	5b d1       	rcall	.+694    	; 0xe78 <strtol>
     bc2:	6b 01       	movw	r12, r22
     bc4:	7c 01       	movw	r14, r24
			char data = (char)strtol(datac,&ends,16);
     bc6:	40 e1       	ldi	r20, 0x10	; 16
     bc8:	50 e0       	ldi	r21, 0x00	; 0
     bca:	be 01       	movw	r22, r28
     bcc:	6f 5b       	subi	r22, 0xBF	; 191
     bce:	7f 4f       	sbci	r23, 0xFF	; 255
     bd0:	ce 01       	movw	r24, r28
     bd2:	01 96       	adiw	r24, 0x01	; 1
     bd4:	51 d1       	rcall	.+674    	; 0xe78 <strtol>
			//sendStringLine(utoa(customer,ends,2));
			//sendString(utoa(data,ends,2));
			IR_send(customer,data);
     bd6:	c6 01       	movw	r24, r12
     bd8:	b4 dc       	rcall	.-1688   	; 0x542 <IR_send>
		}
		if(equal(message,"0")){
     bda:	66 ea       	ldi	r22, 0xA6	; 166
     bdc:	71 e0       	ldi	r23, 0x01	; 1
     bde:	c8 01       	movw	r24, r16
     be0:	91 dc       	rcall	.-1758   	; 0x504 <equal>
     be2:	88 23       	and	r24, r24
     be4:	21 f0       	breq	.+8      	; 0xbee <Mode_command+0xb0>
			IR_send(0x21C7,0x94);
     be6:	64 e9       	ldi	r22, 0x94	; 148
     be8:	87 ec       	ldi	r24, 0xC7	; 199
     bea:	91 e2       	ldi	r25, 0x21	; 33
     bec:	aa dc       	rcall	.-1708   	; 0x542 <IR_send>
		}
	}
	sendStringLine("Exit");
     bee:	88 ea       	ldi	r24, 0xA8	; 168
     bf0:	91 e0       	ldi	r25, 0x01	; 1
     bf2:	c1 db       	rcall	.-2174   	; 0x376 <sendStringLine>
}
     bf4:	c0 5b       	subi	r28, 0xB0	; 176
     bf6:	df 4f       	sbci	r29, 0xFF	; 255
     bf8:	0f b6       	in	r0, 0x3f	; 63
     bfa:	f8 94       	cli
     bfc:	de bf       	out	0x3e, r29	; 62
     bfe:	0f be       	out	0x3f, r0	; 63
     c00:	cd bf       	out	0x3d, r28	; 61
     c02:	df 91       	pop	r29
     c04:	cf 91       	pop	r28
     c06:	1f 91       	pop	r17
     c08:	0f 91       	pop	r16
     c0a:	ff 90       	pop	r15
     c0c:	ef 90       	pop	r14
     c0e:	df 90       	pop	r13
     c10:	cf 90       	pop	r12
     c12:	08 95       	ret

00000c14 <__vector_7>:

//約2.6秒ごと
ISR( TIMER2_COMPA_vect ){
     c14:	1f 92       	push	r1
     c16:	0f 92       	push	r0
     c18:	0f b6       	in	r0, 0x3f	; 63
     c1a:	0f 92       	push	r0
     c1c:	11 24       	eor	r1, r1
     c1e:	2f 93       	push	r18
     c20:	3f 93       	push	r19
     c22:	8f 93       	push	r24
     c24:	9f 93       	push	r25
     c26:	ef 93       	push	r30
     c28:	ff 93       	push	r31
	if(sleepcount++ == 0){
     c2a:	80 91 00 01 	lds	r24, 0x0100
     c2e:	98 2f       	mov	r25, r24
     c30:	9f 5f       	subi	r25, 0xFF	; 255
     c32:	90 93 00 01 	sts	0x0100, r25
     c36:	81 11       	cpse	r24, r1
     c38:	50 c0       	rjmp	.+160    	; 0xcda <__vector_7+0xc6>
			sbi(ADCSRA,ADSC);
     c3a:	ea e7       	ldi	r30, 0x7A	; 122
     c3c:	f0 e0       	ldi	r31, 0x00	; 0
     c3e:	80 81       	ld	r24, Z
     c40:	80 64       	ori	r24, 0x40	; 64
     c42:	80 83       	st	Z, r24
			while(bit_is_set(ADCSRA,ADSC))wait(10);
     c44:	80 81       	ld	r24, Z
     c46:	86 ff       	sbrs	r24, 6
     c48:	09 c0       	rjmp	.+18     	; 0xc5c <__vector_7+0x48>
     c4a:	83 ec       	ldi	r24, 0xC3	; 195
     c4c:	99 e0       	ldi	r25, 0x09	; 9
     c4e:	01 97       	sbiw	r24, 0x01	; 1
     c50:	f1 f7       	brne	.-4      	; 0xc4e <__vector_7+0x3a>
     c52:	00 c0       	rjmp	.+0      	; 0xc54 <__vector_7+0x40>
     c54:	00 00       	nop
     c56:	80 81       	ld	r24, Z
     c58:	86 fd       	sbrc	r24, 6
     c5a:	f7 cf       	rjmp	.-18     	; 0xc4a <__vector_7+0x36>
			if(cnt == 0) cnt = ADC;
     c5c:	80 91 c1 01 	lds	r24, 0x01C1
     c60:	90 91 c2 01 	lds	r25, 0x01C2
     c64:	89 2b       	or	r24, r25
     c66:	41 f4       	brne	.+16     	; 0xc78 <__vector_7+0x64>
     c68:	80 91 78 00 	lds	r24, 0x0078
     c6c:	90 91 79 00 	lds	r25, 0x0079
     c70:	90 93 c2 01 	sts	0x01C2, r25
     c74:	80 93 c1 01 	sts	0x01C1, r24
			adc = ADC;
     c78:	80 91 78 00 	lds	r24, 0x0078
     c7c:	90 91 79 00 	lds	r25, 0x0079
     c80:	90 93 c0 01 	sts	0x01C0, r25
     c84:	80 93 bf 01 	sts	0x01BF, r24
				
			if((adc - cnt) > 150){
     c88:	80 91 bf 01 	lds	r24, 0x01BF
     c8c:	90 91 c0 01 	lds	r25, 0x01C0
     c90:	20 91 c1 01 	lds	r18, 0x01C1
     c94:	30 91 c2 01 	lds	r19, 0x01C2
     c98:	82 1b       	sub	r24, r18
     c9a:	93 0b       	sbc	r25, r19
     c9c:	87 39       	cpi	r24, 0x97	; 151
     c9e:	91 05       	cpc	r25, r1
     ca0:	24 f0       	brlt	.+8      	; 0xcaa <__vector_7+0x96>
				raspi_wake_flag = 1;//多重割り込み回避のためメインルーチンでraspi_wake()を入れる
     ca2:	81 e0       	ldi	r24, 0x01	; 1
     ca4:	80 93 bd 01 	sts	0x01BD, r24
     ca8:	10 c0       	rjmp	.+32     	; 0xcca <__vector_7+0xb6>
			}
			else if((adc - cnt) < -150){
     caa:	80 91 bf 01 	lds	r24, 0x01BF
     cae:	90 91 c0 01 	lds	r25, 0x01C0
     cb2:	20 91 c1 01 	lds	r18, 0x01C1
     cb6:	30 91 c2 01 	lds	r19, 0x01C2
     cba:	82 1b       	sub	r24, r18
     cbc:	93 0b       	sbc	r25, r19
     cbe:	8a 36       	cpi	r24, 0x6A	; 106
     cc0:	9f 4f       	sbci	r25, 0xFF	; 255
     cc2:	1c f4       	brge	.+6      	; 0xcca <__vector_7+0xb6>
				raspi_shutdown_flag = 1;
     cc4:	81 e0       	ldi	r24, 0x01	; 1
     cc6:	80 93 be 01 	sts	0x01BE, r24
			}
				
			cnt = ADC;
     cca:	80 91 78 00 	lds	r24, 0x0078
     cce:	90 91 79 00 	lds	r25, 0x0079
     cd2:	90 93 c2 01 	sts	0x01C2, r25
     cd6:	80 93 c1 01 	sts	0x01C1, r24
			//char test;
			//sendStringLine(utoa(cnt,&test,10));
		
	}
}
     cda:	ff 91       	pop	r31
     cdc:	ef 91       	pop	r30
     cde:	9f 91       	pop	r25
     ce0:	8f 91       	pop	r24
     ce2:	3f 91       	pop	r19
     ce4:	2f 91       	pop	r18
     ce6:	0f 90       	pop	r0
     ce8:	0f be       	out	0x3f, r0	; 63
     cea:	0f 90       	pop	r0
     cec:	1f 90       	pop	r1
     cee:	18 95       	reti

00000cf0 <main>:

int main(void)
{
     cf0:	cf 93       	push	r28
     cf2:	df 93       	push	r29
     cf4:	1f 92       	push	r1
     cf6:	cd b7       	in	r28, 0x3d	; 61
     cf8:	de b7       	in	r29, 0x3e	; 62
	DDRD = 0b11111111;//全部出力
     cfa:	8f ef       	ldi	r24, 0xFF	; 255
     cfc:	8a b9       	out	0x0a, r24	; 10
	PORTD = 0b00000000;
     cfe:	1b b8       	out	0x0b, r1	; 11
	DDRC = 0b11111110;//PC0入力
     d00:	9e ef       	ldi	r25, 0xFE	; 254
     d02:	97 b9       	out	0x07, r25	; 7
	PORTC = 0b00000000;
     d04:	18 b8       	out	0x08, r1	; 8
	DDRB = 0b11111111;//全出力
     d06:	84 b9       	out	0x04, r24	; 4
	PORTB = 0b00000000;
     d08:	15 b8       	out	0x05, r1	; 5
	
	//Timer0,1は赤外線ライブラリにて使用
	//Timer2設定 TIMER2_OVF_vect 約2.6秒ごと
	TCCR2A = 0b00000010;//標準ポート動作　CTC
     d0a:	92 e0       	ldi	r25, 0x02	; 2
     d0c:	90 93 b0 00 	sts	0x00B0, r25
	TCCR2B = 0b00000111;//CTC 1024分周
     d10:	97 e0       	ldi	r25, 0x07	; 7
     d12:	90 93 b1 00 	sts	0x00B1, r25
	TIMSK2 = 0b00000000;
     d16:	e0 e7       	ldi	r30, 0x70	; 112
     d18:	f0 e0       	ldi	r31, 0x00	; 0
     d1a:	10 82       	st	Z, r1
	sbi(TIMSK2,OCIE2A);//コンペアマッチA割り込み
     d1c:	90 81       	ld	r25, Z
     d1e:	92 60       	ori	r25, 0x02	; 2
     d20:	90 83       	st	Z, r25
	OCR2A = 0xFF;
     d22:	80 93 b3 00 	sts	0x00B3, r24
	//TCCR0A = 0b00000010;
	//TCCR0B = 0b00000101;
	//OCR0A = 5;
	//TIMSK0 = 0b00000010;
	
	ADCSRA = 0b10000100; //62.5kHz
     d26:	84 e8       	ldi	r24, 0x84	; 132
     d28:	80 93 7a 00 	sts	0x007A, r24
	ADMUX = 0b00000000; //ADC0 AREF 右
     d2c:	10 92 7c 00 	sts	0x007C, r1
     d30:	83 ec       	ldi	r24, 0xC3	; 195
     d32:	99 e0       	ldi	r25, 0x09	; 9
     d34:	01 97       	sbiw	r24, 0x01	; 1
     d36:	f1 f7       	brne	.-4      	; 0xd34 <main+0x44>
     d38:	00 c0       	rjmp	.+0      	; 0xd3a <main+0x4a>
     d3a:	00 00       	nop
	
	wait(10);
	IR_initialize(0);
     d3c:	80 e0       	ldi	r24, 0x00	; 0
     d3e:	ce d9       	rcall	.-3172   	; 0xdc <IR_initialize>
     d40:	e3 ec       	ldi	r30, 0xC3	; 195
     d42:	f9 e0       	ldi	r31, 0x09	; 9
     d44:	31 97       	sbiw	r30, 0x01	; 1
     d46:	f1 f7       	brne	.-4      	; 0xd44 <main+0x54>
     d48:	00 c0       	rjmp	.+0      	; 0xd4a <main+0x5a>
     d4a:	00 00       	nop
	//beep_init();
	wait(10);
	sio_init(4800,8);
     d4c:	68 e0       	ldi	r22, 0x08	; 8
     d4e:	70 e0       	ldi	r23, 0x00	; 0
     d50:	80 ec       	ldi	r24, 0xC0	; 192
     d52:	92 e1       	ldi	r25, 0x12	; 18
     d54:	66 da       	rcall	.-2868   	; 0x222 <sio_init>
	
	sei();
     d56:	78 94       	sei
	
	//wait(1000);
	
	sendStringLine("Hello AVR");
     d58:	8d ea       	ldi	r24, 0xAD	; 173
     d5a:	91 e0       	ldi	r25, 0x01	; 1
     d5c:	0c db       	rcall	.-2536   	; 0x376 <sendStringLine>
	/*sbi(ADCSRA,ADSC);
	while(bit_is_set(ADCSRA,ADSC))wait(1000);
	cnt = ADC;
	adc = ADC;*/
	
	set_sleep_mode(SLEEP_MODE_IDLE);
     d5e:	83 b7       	in	r24, 0x33	; 51
     d60:	81 7f       	andi	r24, 0xF1	; 241
     d62:	83 bf       	out	0x33, r24	; 51
	sbi(PRR,PRTWI);
     d64:	e4 e6       	ldi	r30, 0x64	; 100
     d66:	f0 e0       	ldi	r31, 0x00	; 0
     d68:	80 81       	ld	r24, Z
     d6a:	80 68       	ori	r24, 0x80	; 128
     d6c:	80 83       	st	Z, r24
	sbi(PRR,PRSPI);
     d6e:	80 81       	ld	r24, Z
     d70:	84 60       	ori	r24, 0x04	; 4
     d72:	80 83       	st	Z, r24
			sendStringLine(itoa(IR_received_consumer,&ch,16));
			sendString("0x");
			sendStringLine(itoa(IR_received_data,&ch,16));
		}
		if(commandMode_flag){//コマンドモード
			cbi(TIMSK2,OCIE2A);//タイマー2割りこみ(明るさセンサー監視)なし
     d74:	00 e7       	ldi	r16, 0x70	; 112
     d76:	10 e0       	ldi	r17, 0x00	; 0
	sbi(PRR,PRTWI);
	sbi(PRR,PRSPI);
	
    while(1)
    {
		if(raspi_wake_flag) raspi_wake();
     d78:	80 91 bd 01 	lds	r24, 0x01BD
     d7c:	81 11       	cpse	r24, r1
     d7e:	bd de       	rcall	.-646    	; 0xafa <raspi_wake>
		if(raspi_shutdown_flag) raspi_shutdown();
     d80:	80 91 be 01 	lds	r24, 0x01BE
     d84:	81 11       	cpse	r24, r1
     d86:	ce de       	rcall	.-612    	; 0xb24 <raspi_shutdown>
		if(startCapture_flag) IR_initialize(0);
     d88:	80 91 bb 01 	lds	r24, 0x01BB
     d8c:	88 23       	and	r24, r24
     d8e:	11 f0       	breq	.+4      	; 0xd94 <main+0xa4>
     d90:	80 e0       	ldi	r24, 0x00	; 0
     d92:	a4 d9       	rcall	.-3256   	; 0xdc <IR_initialize>
		if(IRrecv_flag){
     d94:	80 91 ba 01 	lds	r24, 0x01BA
     d98:	88 23       	and	r24, r24
     d9a:	e9 f0       	breq	.+58     	; 0xdd6 <main+0xe6>
			IRrecv_flag = 0;
     d9c:	10 92 ba 01 	sts	0x01BA, r1
			char ch;
			sendString("0x");
     da0:	87 eb       	ldi	r24, 0xB7	; 183
     da2:	91 e0       	ldi	r25, 0x01	; 1
     da4:	d1 da       	rcall	.-2654   	; 0x348 <sendString>
			sendStringLine(itoa(IR_received_consumer,&ch,16));
     da6:	80 91 cf 01 	lds	r24, 0x01CF
     daa:	90 91 d0 01 	lds	r25, 0x01D0
     dae:	40 e1       	ldi	r20, 0x10	; 16
     db0:	50 e0       	ldi	r21, 0x00	; 0
     db2:	be 01       	movw	r22, r28
     db4:	6f 5f       	subi	r22, 0xFF	; 255
     db6:	7f 4f       	sbci	r23, 0xFF	; 255
     db8:	7f d1       	rcall	.+766    	; 0x10b8 <itoa>
     dba:	dd da       	rcall	.-2630   	; 0x376 <sendStringLine>
			sendString("0x");
     dbc:	87 eb       	ldi	r24, 0xB7	; 183
     dbe:	91 e0       	ldi	r25, 0x01	; 1
     dc0:	c3 da       	rcall	.-2682   	; 0x348 <sendString>
			sendStringLine(itoa(IR_received_data,&ch,16));
     dc2:	80 91 ce 01 	lds	r24, 0x01CE
     dc6:	40 e1       	ldi	r20, 0x10	; 16
     dc8:	50 e0       	ldi	r21, 0x00	; 0
     dca:	be 01       	movw	r22, r28
     dcc:	6f 5f       	subi	r22, 0xFF	; 255
     dce:	7f 4f       	sbci	r23, 0xFF	; 255
     dd0:	90 e0       	ldi	r25, 0x00	; 0
     dd2:	72 d1       	rcall	.+740    	; 0x10b8 <itoa>
     dd4:	d0 da       	rcall	.-2656   	; 0x376 <sendStringLine>
		}
		if(commandMode_flag){//コマンドモード
     dd6:	80 91 bc 01 	lds	r24, 0x01BC
     dda:	88 23       	and	r24, r24
     ddc:	59 f0       	breq	.+22     	; 0xdf4 <main+0x104>
			cbi(TIMSK2,OCIE2A);//タイマー2割りこみ(明るさセンサー監視)なし
     dde:	f8 01       	movw	r30, r16
     de0:	80 81       	ld	r24, Z
     de2:	8d 7f       	andi	r24, 0xFD	; 253
     de4:	80 83       	st	Z, r24
			Mode_command();
     de6:	ab de       	rcall	.-682    	; 0xb3e <Mode_command>
			commandMode_flag = 0;
     de8:	10 92 bc 01 	sts	0x01BC, r1
			sbi(TIMSK2,OCIE2A);
     dec:	f8 01       	movw	r30, r16
     dee:	80 81       	ld	r24, Z
     df0:	82 60       	ori	r24, 0x02	; 2
     df2:	80 83       	st	Z, r24
		}
		//tbi(PORTD,PD7);
		//wait(1000);
		if(is_transmitted()) {
     df4:	51 da       	rcall	.-2910   	; 0x298 <is_transmitted>
     df6:	88 23       	and	r24, r24
     df8:	09 f4       	brne	.+2      	; 0xdfc <main+0x10c>
     dfa:	be cf       	rjmp	.-132    	; 0xd78 <main+0x88>
			sleep_mode();
     dfc:	83 b7       	in	r24, 0x33	; 51
     dfe:	81 60       	ori	r24, 0x01	; 1
     e00:	83 bf       	out	0x33, r24	; 51
     e02:	88 95       	sleep
     e04:	83 b7       	in	r24, 0x33	; 51
     e06:	8e 7f       	andi	r24, 0xFE	; 254
     e08:	83 bf       	out	0x33, r24	; 51
     e0a:	b6 cf       	rjmp	.-148    	; 0xd78 <main+0x88>

00000e0c <__udivmodhi4>:
     e0c:	aa 1b       	sub	r26, r26
     e0e:	bb 1b       	sub	r27, r27
     e10:	51 e1       	ldi	r21, 0x11	; 17
     e12:	07 c0       	rjmp	.+14     	; 0xe22 <__udivmodhi4_ep>

00000e14 <__udivmodhi4_loop>:
     e14:	aa 1f       	adc	r26, r26
     e16:	bb 1f       	adc	r27, r27
     e18:	a6 17       	cp	r26, r22
     e1a:	b7 07       	cpc	r27, r23
     e1c:	10 f0       	brcs	.+4      	; 0xe22 <__udivmodhi4_ep>
     e1e:	a6 1b       	sub	r26, r22
     e20:	b7 0b       	sbc	r27, r23

00000e22 <__udivmodhi4_ep>:
     e22:	88 1f       	adc	r24, r24
     e24:	99 1f       	adc	r25, r25
     e26:	5a 95       	dec	r21
     e28:	a9 f7       	brne	.-22     	; 0xe14 <__udivmodhi4_loop>
     e2a:	80 95       	com	r24
     e2c:	90 95       	com	r25
     e2e:	bc 01       	movw	r22, r24
     e30:	cd 01       	movw	r24, r26
     e32:	08 95       	ret

00000e34 <__udivmodsi4>:
     e34:	a1 e2       	ldi	r26, 0x21	; 33
     e36:	1a 2e       	mov	r1, r26
     e38:	aa 1b       	sub	r26, r26
     e3a:	bb 1b       	sub	r27, r27
     e3c:	fd 01       	movw	r30, r26
     e3e:	0d c0       	rjmp	.+26     	; 0xe5a <__udivmodsi4_ep>

00000e40 <__udivmodsi4_loop>:
     e40:	aa 1f       	adc	r26, r26
     e42:	bb 1f       	adc	r27, r27
     e44:	ee 1f       	adc	r30, r30
     e46:	ff 1f       	adc	r31, r31
     e48:	a2 17       	cp	r26, r18
     e4a:	b3 07       	cpc	r27, r19
     e4c:	e4 07       	cpc	r30, r20
     e4e:	f5 07       	cpc	r31, r21
     e50:	20 f0       	brcs	.+8      	; 0xe5a <__udivmodsi4_ep>
     e52:	a2 1b       	sub	r26, r18
     e54:	b3 0b       	sbc	r27, r19
     e56:	e4 0b       	sbc	r30, r20
     e58:	f5 0b       	sbc	r31, r21

00000e5a <__udivmodsi4_ep>:
     e5a:	66 1f       	adc	r22, r22
     e5c:	77 1f       	adc	r23, r23
     e5e:	88 1f       	adc	r24, r24
     e60:	99 1f       	adc	r25, r25
     e62:	1a 94       	dec	r1
     e64:	69 f7       	brne	.-38     	; 0xe40 <__udivmodsi4_loop>
     e66:	60 95       	com	r22
     e68:	70 95       	com	r23
     e6a:	80 95       	com	r24
     e6c:	90 95       	com	r25
     e6e:	9b 01       	movw	r18, r22
     e70:	ac 01       	movw	r20, r24
     e72:	bd 01       	movw	r22, r26
     e74:	cf 01       	movw	r24, r30
     e76:	08 95       	ret

00000e78 <strtol>:
     e78:	a0 e0       	ldi	r26, 0x00	; 0
     e7a:	b0 e0       	ldi	r27, 0x00	; 0
     e7c:	e1 e4       	ldi	r30, 0x41	; 65
     e7e:	f7 e0       	ldi	r31, 0x07	; 7
     e80:	68 c1       	rjmp	.+720    	; 0x1152 <__prologue_saves__+0x4>
     e82:	5b 01       	movw	r10, r22
     e84:	ea 01       	movw	r28, r20
     e86:	61 15       	cp	r22, r1
     e88:	71 05       	cpc	r23, r1
     e8a:	19 f0       	breq	.+6      	; 0xe92 <strtol+0x1a>
     e8c:	fb 01       	movw	r30, r22
     e8e:	80 83       	st	Z, r24
     e90:	91 83       	std	Z+1, r25	; 0x01
     e92:	20 97       	sbiw	r28, 0x00	; 0
     e94:	39 f0       	breq	.+14     	; 0xea4 <strtol+0x2c>
     e96:	9e 01       	movw	r18, r28
     e98:	22 50       	subi	r18, 0x02	; 2
     e9a:	31 09       	sbc	r19, r1
     e9c:	23 32       	cpi	r18, 0x23	; 35
     e9e:	31 05       	cpc	r19, r1
     ea0:	08 f0       	brcs	.+2      	; 0xea4 <strtol+0x2c>
     ea2:	e3 c0       	rjmp	.+454    	; 0x106a <strtol+0x1f2>
     ea4:	7c 01       	movw	r14, r24
     ea6:	f7 01       	movw	r30, r14
     ea8:	91 90       	ld	r9, Z+
     eaa:	7f 01       	movw	r14, r30
     eac:	8f 01       	movw	r16, r30
     eae:	89 2d       	mov	r24, r9
     eb0:	90 e0       	ldi	r25, 0x00	; 0
     eb2:	f3 d0       	rcall	.+486    	; 0x109a <isspace>
     eb4:	89 2b       	or	r24, r25
     eb6:	b9 f7       	brne	.-18     	; 0xea6 <strtol+0x2e>
     eb8:	fd e2       	ldi	r31, 0x2D	; 45
     eba:	9f 12       	cpse	r9, r31
     ebc:	06 c0       	rjmp	.+12     	; 0xeca <strtol+0x52>
     ebe:	f7 01       	movw	r30, r14
     ec0:	91 90       	ld	r9, Z+
     ec2:	8f 01       	movw	r16, r30
     ec4:	88 24       	eor	r8, r8
     ec6:	83 94       	inc	r8
     ec8:	07 c0       	rjmp	.+14     	; 0xed8 <strtol+0x60>
     eca:	fb e2       	ldi	r31, 0x2B	; 43
     ecc:	9f 12       	cpse	r9, r31
     ece:	03 c0       	rjmp	.+6      	; 0xed6 <strtol+0x5e>
     ed0:	f7 01       	movw	r30, r14
     ed2:	91 90       	ld	r9, Z+
     ed4:	8f 01       	movw	r16, r30
     ed6:	81 2c       	mov	r8, r1
     ed8:	20 97       	sbiw	r28, 0x00	; 0
     eda:	09 f4       	brne	.+2      	; 0xede <strtol+0x66>
     edc:	d4 c0       	rjmp	.+424    	; 0x1086 <strtol+0x20e>
     ede:	c0 31       	cpi	r28, 0x10	; 16
     ee0:	d1 05       	cpc	r29, r1
     ee2:	81 f4       	brne	.+32     	; 0xf04 <strtol+0x8c>
     ee4:	cc c0       	rjmp	.+408    	; 0x107e <strtol+0x206>
     ee6:	f8 01       	movw	r30, r16
     ee8:	80 81       	ld	r24, Z
     eea:	88 37       	cpi	r24, 0x78	; 120
     eec:	19 f0       	breq	.+6      	; 0xef4 <strtol+0x7c>
     eee:	88 35       	cpi	r24, 0x58	; 88
     ef0:	09 f0       	breq	.+2      	; 0xef4 <strtol+0x7c>
     ef2:	bf c0       	rjmp	.+382    	; 0x1072 <strtol+0x1fa>
     ef4:	f8 01       	movw	r30, r16
     ef6:	91 80       	ldd	r9, Z+1	; 0x01
     ef8:	0e 5f       	subi	r16, 0xFE	; 254
     efa:	1f 4f       	sbci	r17, 0xFF	; 255
     efc:	f2 e0       	ldi	r31, 0x02	; 2
     efe:	8f 2a       	or	r8, r31
     f00:	c0 e1       	ldi	r28, 0x10	; 16
     f02:	d0 e0       	ldi	r29, 0x00	; 0
     f04:	c8 30       	cpi	r28, 0x08	; 8
     f06:	d1 05       	cpc	r29, r1
     f08:	d9 f0       	breq	.+54     	; 0xf40 <strtol+0xc8>
     f0a:	24 f4       	brge	.+8      	; 0xf14 <strtol+0x9c>
     f0c:	c2 30       	cpi	r28, 0x02	; 2
     f0e:	d1 05       	cpc	r29, r1
     f10:	f9 f4       	brne	.+62     	; 0xf50 <strtol+0xd8>
     f12:	07 c0       	rjmp	.+14     	; 0xf22 <strtol+0xaa>
     f14:	ca 30       	cpi	r28, 0x0A	; 10
     f16:	d1 05       	cpc	r29, r1
     f18:	51 f0       	breq	.+20     	; 0xf2e <strtol+0xb6>
     f1a:	c0 31       	cpi	r28, 0x10	; 16
     f1c:	d1 05       	cpc	r29, r1
     f1e:	c1 f4       	brne	.+48     	; 0xf50 <strtol+0xd8>
     f20:	24 c0       	rjmp	.+72     	; 0xf6a <strtol+0xf2>
     f22:	c1 2c       	mov	r12, r1
     f24:	d1 2c       	mov	r13, r1
     f26:	e1 2c       	mov	r14, r1
     f28:	40 e4       	ldi	r20, 0x40	; 64
     f2a:	f4 2e       	mov	r15, r20
     f2c:	23 c0       	rjmp	.+70     	; 0xf74 <strtol+0xfc>
     f2e:	ca e0       	ldi	r28, 0x0A	; 10
     f30:	d0 e0       	ldi	r29, 0x00	; 0
     f32:	3c ec       	ldi	r19, 0xCC	; 204
     f34:	c3 2e       	mov	r12, r19
     f36:	dc 2c       	mov	r13, r12
     f38:	ec 2c       	mov	r14, r12
     f3a:	3c e0       	ldi	r19, 0x0C	; 12
     f3c:	f3 2e       	mov	r15, r19
     f3e:	1a c0       	rjmp	.+52     	; 0xf74 <strtol+0xfc>
     f40:	c8 e0       	ldi	r28, 0x08	; 8
     f42:	d0 e0       	ldi	r29, 0x00	; 0
     f44:	c1 2c       	mov	r12, r1
     f46:	d1 2c       	mov	r13, r1
     f48:	e1 2c       	mov	r14, r1
     f4a:	20 e1       	ldi	r18, 0x10	; 16
     f4c:	f2 2e       	mov	r15, r18
     f4e:	12 c0       	rjmp	.+36     	; 0xf74 <strtol+0xfc>
     f50:	9e 01       	movw	r18, r28
     f52:	44 27       	eor	r20, r20
     f54:	37 fd       	sbrc	r19, 7
     f56:	40 95       	com	r20
     f58:	54 2f       	mov	r21, r20
     f5a:	60 e0       	ldi	r22, 0x00	; 0
     f5c:	70 e0       	ldi	r23, 0x00	; 0
     f5e:	80 e0       	ldi	r24, 0x00	; 0
     f60:	90 e8       	ldi	r25, 0x80	; 128
     f62:	68 df       	rcall	.-304    	; 0xe34 <__udivmodsi4>
     f64:	69 01       	movw	r12, r18
     f66:	7a 01       	movw	r14, r20
     f68:	05 c0       	rjmp	.+10     	; 0xf74 <strtol+0xfc>
     f6a:	c1 2c       	mov	r12, r1
     f6c:	d1 2c       	mov	r13, r1
     f6e:	e1 2c       	mov	r14, r1
     f70:	98 e0       	ldi	r25, 0x08	; 8
     f72:	f9 2e       	mov	r15, r25
     f74:	40 e0       	ldi	r20, 0x00	; 0
     f76:	60 e0       	ldi	r22, 0x00	; 0
     f78:	70 e0       	ldi	r23, 0x00	; 0
     f7a:	cb 01       	movw	r24, r22
     f7c:	2e 01       	movw	r4, r28
     f7e:	66 24       	eor	r6, r6
     f80:	57 fc       	sbrc	r5, 7
     f82:	60 94       	com	r6
     f84:	76 2c       	mov	r7, r6
     f86:	e9 2d       	mov	r30, r9
     f88:	e0 53       	subi	r30, 0x30	; 48
     f8a:	ea 30       	cpi	r30, 0x0A	; 10
     f8c:	60 f0       	brcs	.+24     	; 0xfa6 <strtol+0x12e>
     f8e:	29 2d       	mov	r18, r9
     f90:	21 54       	subi	r18, 0x41	; 65
     f92:	2a 31       	cpi	r18, 0x1A	; 26
     f94:	10 f4       	brcc	.+4      	; 0xf9a <strtol+0x122>
     f96:	e7 50       	subi	r30, 0x07	; 7
     f98:	06 c0       	rjmp	.+12     	; 0xfa6 <strtol+0x12e>
     f9a:	29 2d       	mov	r18, r9
     f9c:	21 56       	subi	r18, 0x61	; 97
     f9e:	2a 31       	cpi	r18, 0x1A	; 26
     fa0:	20 f5       	brcc	.+72     	; 0xfea <strtol+0x172>
     fa2:	e9 2d       	mov	r30, r9
     fa4:	e7 55       	subi	r30, 0x57	; 87
     fa6:	2e 2f       	mov	r18, r30
     fa8:	30 e0       	ldi	r19, 0x00	; 0
     faa:	2c 17       	cp	r18, r28
     fac:	3d 07       	cpc	r19, r29
     fae:	ec f4       	brge	.+58     	; 0xfea <strtol+0x172>
     fb0:	47 fd       	sbrc	r20, 7
     fb2:	17 c0       	rjmp	.+46     	; 0xfe2 <strtol+0x16a>
     fb4:	c6 16       	cp	r12, r22
     fb6:	d7 06       	cpc	r13, r23
     fb8:	e8 06       	cpc	r14, r24
     fba:	f9 06       	cpc	r15, r25
     fbc:	78 f0       	brcs	.+30     	; 0xfdc <strtol+0x164>
     fbe:	9b 01       	movw	r18, r22
     fc0:	ac 01       	movw	r20, r24
     fc2:	c3 01       	movw	r24, r6
     fc4:	b2 01       	movw	r22, r4
     fc6:	aa d0       	rcall	.+340    	; 0x111c <__mulsi3>
     fc8:	6e 0f       	add	r22, r30
     fca:	71 1d       	adc	r23, r1
     fcc:	81 1d       	adc	r24, r1
     fce:	91 1d       	adc	r25, r1
     fd0:	61 30       	cpi	r22, 0x01	; 1
     fd2:	71 05       	cpc	r23, r1
     fd4:	81 05       	cpc	r24, r1
     fd6:	20 e8       	ldi	r18, 0x80	; 128
     fd8:	92 07       	cpc	r25, r18
     fda:	10 f0       	brcs	.+4      	; 0xfe0 <strtol+0x168>
     fdc:	4f ef       	ldi	r20, 0xFF	; 255
     fde:	01 c0       	rjmp	.+2      	; 0xfe2 <strtol+0x16a>
     fe0:	41 e0       	ldi	r20, 0x01	; 1
     fe2:	f8 01       	movw	r30, r16
     fe4:	91 90       	ld	r9, Z+
     fe6:	8f 01       	movw	r16, r30
     fe8:	ce cf       	rjmp	.-100    	; 0xf86 <strtol+0x10e>
     fea:	a1 14       	cp	r10, r1
     fec:	b1 04       	cpc	r11, r1
     fee:	81 f0       	breq	.+32     	; 0x1010 <strtol+0x198>
     ff0:	44 23       	and	r20, r20
     ff2:	31 f0       	breq	.+12     	; 0x1000 <strtol+0x188>
     ff4:	01 50       	subi	r16, 0x01	; 1
     ff6:	11 09       	sbc	r17, r1
     ff8:	f5 01       	movw	r30, r10
     ffa:	11 83       	std	Z+1, r17	; 0x01
     ffc:	00 83       	st	Z, r16
     ffe:	08 c0       	rjmp	.+16     	; 0x1010 <strtol+0x198>
    1000:	81 fe       	sbrs	r8, 1
    1002:	1a c0       	rjmp	.+52     	; 0x1038 <strtol+0x1c0>
    1004:	02 50       	subi	r16, 0x02	; 2
    1006:	11 09       	sbc	r17, r1
    1008:	f5 01       	movw	r30, r10
    100a:	11 83       	std	Z+1, r17	; 0x01
    100c:	00 83       	st	Z, r16
    100e:	14 c0       	rjmp	.+40     	; 0x1038 <strtol+0x1c0>
    1010:	47 ff       	sbrs	r20, 7
    1012:	12 c0       	rjmp	.+36     	; 0x1038 <strtol+0x1c0>
    1014:	80 fe       	sbrs	r8, 0
    1016:	05 c0       	rjmp	.+10     	; 0x1022 <strtol+0x1aa>
    1018:	60 e0       	ldi	r22, 0x00	; 0
    101a:	70 e0       	ldi	r23, 0x00	; 0
    101c:	80 e0       	ldi	r24, 0x00	; 0
    101e:	90 e8       	ldi	r25, 0x80	; 128
    1020:	04 c0       	rjmp	.+8      	; 0x102a <strtol+0x1b2>
    1022:	6f ef       	ldi	r22, 0xFF	; 255
    1024:	7f ef       	ldi	r23, 0xFF	; 255
    1026:	8f ef       	ldi	r24, 0xFF	; 255
    1028:	9f e7       	ldi	r25, 0x7F	; 127
    102a:	22 e2       	ldi	r18, 0x22	; 34
    102c:	30 e0       	ldi	r19, 0x00	; 0
    102e:	30 93 d6 04 	sts	0x04D6, r19
    1032:	20 93 d5 04 	sts	0x04D5, r18
    1036:	16 c0       	rjmp	.+44     	; 0x1064 <strtol+0x1ec>
    1038:	80 fe       	sbrs	r8, 0
    103a:	08 c0       	rjmp	.+16     	; 0x104c <strtol+0x1d4>
    103c:	90 95       	com	r25
    103e:	80 95       	com	r24
    1040:	70 95       	com	r23
    1042:	61 95       	neg	r22
    1044:	7f 4f       	sbci	r23, 0xFF	; 255
    1046:	8f 4f       	sbci	r24, 0xFF	; 255
    1048:	9f 4f       	sbci	r25, 0xFF	; 255
    104a:	0c c0       	rjmp	.+24     	; 0x1064 <strtol+0x1ec>
    104c:	97 ff       	sbrs	r25, 7
    104e:	0a c0       	rjmp	.+20     	; 0x1064 <strtol+0x1ec>
    1050:	82 e2       	ldi	r24, 0x22	; 34
    1052:	90 e0       	ldi	r25, 0x00	; 0
    1054:	90 93 d6 04 	sts	0x04D6, r25
    1058:	80 93 d5 04 	sts	0x04D5, r24
    105c:	6f ef       	ldi	r22, 0xFF	; 255
    105e:	7f ef       	ldi	r23, 0xFF	; 255
    1060:	8f ef       	ldi	r24, 0xFF	; 255
    1062:	9f e7       	ldi	r25, 0x7F	; 127
    1064:	8b 01       	movw	r16, r22
    1066:	9c 01       	movw	r18, r24
    1068:	12 c0       	rjmp	.+36     	; 0x108e <strtol+0x216>
    106a:	00 e0       	ldi	r16, 0x00	; 0
    106c:	10 e0       	ldi	r17, 0x00	; 0
    106e:	98 01       	movw	r18, r16
    1070:	0e c0       	rjmp	.+28     	; 0x108e <strtol+0x216>
    1072:	80 e3       	ldi	r24, 0x30	; 48
    1074:	98 2e       	mov	r9, r24
    1076:	20 97       	sbiw	r28, 0x00	; 0
    1078:	09 f4       	brne	.+2      	; 0x107c <strtol+0x204>
    107a:	62 cf       	rjmp	.-316    	; 0xf40 <strtol+0xc8>
    107c:	43 cf       	rjmp	.-378    	; 0xf04 <strtol+0x8c>
    107e:	f0 e3       	ldi	r31, 0x30	; 48
    1080:	9f 12       	cpse	r9, r31
    1082:	40 cf       	rjmp	.-384    	; 0xf04 <strtol+0x8c>
    1084:	30 cf       	rjmp	.-416    	; 0xee6 <strtol+0x6e>
    1086:	20 e3       	ldi	r18, 0x30	; 48
    1088:	92 12       	cpse	r9, r18
    108a:	51 cf       	rjmp	.-350    	; 0xf2e <strtol+0xb6>
    108c:	2c cf       	rjmp	.-424    	; 0xee6 <strtol+0x6e>
    108e:	b8 01       	movw	r22, r16
    1090:	c9 01       	movw	r24, r18
    1092:	cd b7       	in	r28, 0x3d	; 61
    1094:	de b7       	in	r29, 0x3e	; 62
    1096:	e0 e1       	ldi	r30, 0x10	; 16
    1098:	78 c0       	rjmp	.+240    	; 0x118a <__epilogue_restores__+0x4>

0000109a <isspace>:
    109a:	91 11       	cpse	r25, r1
    109c:	2c c0       	rjmp	.+88     	; 0x10f6 <__ctype_isfalse>
    109e:	80 32       	cpi	r24, 0x20	; 32
    10a0:	19 f0       	breq	.+6      	; 0x10a8 <isspace+0xe>
    10a2:	89 50       	subi	r24, 0x09	; 9
    10a4:	85 50       	subi	r24, 0x05	; 5
    10a6:	d0 f7       	brcc	.-12     	; 0x109c <isspace+0x2>
    10a8:	08 95       	ret

000010aa <strcpy>:
    10aa:	fb 01       	movw	r30, r22
    10ac:	dc 01       	movw	r26, r24
    10ae:	01 90       	ld	r0, Z+
    10b0:	0d 92       	st	X+, r0
    10b2:	00 20       	and	r0, r0
    10b4:	e1 f7       	brne	.-8      	; 0x10ae <strcpy+0x4>
    10b6:	08 95       	ret

000010b8 <itoa>:
    10b8:	fb 01       	movw	r30, r22
    10ba:	9f 01       	movw	r18, r30
    10bc:	e8 94       	clt
    10be:	42 30       	cpi	r20, 0x02	; 2
    10c0:	bc f0       	brlt	.+46     	; 0x10f0 <itoa+0x38>
    10c2:	45 32       	cpi	r20, 0x25	; 37
    10c4:	ac f4       	brge	.+42     	; 0x10f0 <itoa+0x38>
    10c6:	4a 30       	cpi	r20, 0x0A	; 10
    10c8:	29 f4       	brne	.+10     	; 0x10d4 <itoa+0x1c>
    10ca:	97 fb       	bst	r25, 7
    10cc:	1e f4       	brtc	.+6      	; 0x10d4 <itoa+0x1c>
    10ce:	90 95       	com	r25
    10d0:	81 95       	neg	r24
    10d2:	9f 4f       	sbci	r25, 0xFF	; 255
    10d4:	64 2f       	mov	r22, r20
    10d6:	77 27       	eor	r23, r23
    10d8:	99 de       	rcall	.-718    	; 0xe0c <__udivmodhi4>
    10da:	80 5d       	subi	r24, 0xD0	; 208
    10dc:	8a 33       	cpi	r24, 0x3A	; 58
    10de:	0c f0       	brlt	.+2      	; 0x10e2 <itoa+0x2a>
    10e0:	89 5d       	subi	r24, 0xD9	; 217
    10e2:	81 93       	st	Z+, r24
    10e4:	cb 01       	movw	r24, r22
    10e6:	00 97       	sbiw	r24, 0x00	; 0
    10e8:	a9 f7       	brne	.-22     	; 0x10d4 <itoa+0x1c>
    10ea:	16 f4       	brtc	.+4      	; 0x10f0 <itoa+0x38>
    10ec:	5d e2       	ldi	r21, 0x2D	; 45
    10ee:	51 93       	st	Z+, r21
    10f0:	10 82       	st	Z, r1
    10f2:	c9 01       	movw	r24, r18
    10f4:	03 c0       	rjmp	.+6      	; 0x10fc <strrev>

000010f6 <__ctype_isfalse>:
    10f6:	99 27       	eor	r25, r25
    10f8:	88 27       	eor	r24, r24

000010fa <__ctype_istrue>:
    10fa:	08 95       	ret

000010fc <strrev>:
    10fc:	dc 01       	movw	r26, r24
    10fe:	fc 01       	movw	r30, r24
    1100:	67 2f       	mov	r22, r23
    1102:	71 91       	ld	r23, Z+
    1104:	77 23       	and	r23, r23
    1106:	e1 f7       	brne	.-8      	; 0x1100 <strrev+0x4>
    1108:	32 97       	sbiw	r30, 0x02	; 2
    110a:	04 c0       	rjmp	.+8      	; 0x1114 <strrev+0x18>
    110c:	7c 91       	ld	r23, X
    110e:	6d 93       	st	X+, r22
    1110:	70 83       	st	Z, r23
    1112:	62 91       	ld	r22, -Z
    1114:	ae 17       	cp	r26, r30
    1116:	bf 07       	cpc	r27, r31
    1118:	c8 f3       	brcs	.-14     	; 0x110c <strrev+0x10>
    111a:	08 95       	ret

0000111c <__mulsi3>:
    111c:	db 01       	movw	r26, r22
    111e:	8f 93       	push	r24
    1120:	9f 93       	push	r25
    1122:	0b d0       	rcall	.+22     	; 0x113a <__muluhisi3>
    1124:	bf 91       	pop	r27
    1126:	af 91       	pop	r26
    1128:	a2 9f       	mul	r26, r18
    112a:	80 0d       	add	r24, r0
    112c:	91 1d       	adc	r25, r1
    112e:	a3 9f       	mul	r26, r19
    1130:	90 0d       	add	r25, r0
    1132:	b2 9f       	mul	r27, r18
    1134:	90 0d       	add	r25, r0
    1136:	11 24       	eor	r1, r1
    1138:	08 95       	ret

0000113a <__muluhisi3>:
    113a:	40 d0       	rcall	.+128    	; 0x11bc <__umulhisi3>
    113c:	a5 9f       	mul	r26, r21
    113e:	90 0d       	add	r25, r0
    1140:	b4 9f       	mul	r27, r20
    1142:	90 0d       	add	r25, r0
    1144:	a4 9f       	mul	r26, r20
    1146:	80 0d       	add	r24, r0
    1148:	91 1d       	adc	r25, r1
    114a:	11 24       	eor	r1, r1
    114c:	08 95       	ret

0000114e <__prologue_saves__>:
    114e:	2f 92       	push	r2
    1150:	3f 92       	push	r3
    1152:	4f 92       	push	r4
    1154:	5f 92       	push	r5
    1156:	6f 92       	push	r6
    1158:	7f 92       	push	r7
    115a:	8f 92       	push	r8
    115c:	9f 92       	push	r9
    115e:	af 92       	push	r10
    1160:	bf 92       	push	r11
    1162:	cf 92       	push	r12
    1164:	df 92       	push	r13
    1166:	ef 92       	push	r14
    1168:	ff 92       	push	r15
    116a:	0f 93       	push	r16
    116c:	1f 93       	push	r17
    116e:	cf 93       	push	r28
    1170:	df 93       	push	r29
    1172:	cd b7       	in	r28, 0x3d	; 61
    1174:	de b7       	in	r29, 0x3e	; 62
    1176:	ca 1b       	sub	r28, r26
    1178:	db 0b       	sbc	r29, r27
    117a:	0f b6       	in	r0, 0x3f	; 63
    117c:	f8 94       	cli
    117e:	de bf       	out	0x3e, r29	; 62
    1180:	0f be       	out	0x3f, r0	; 63
    1182:	cd bf       	out	0x3d, r28	; 61
    1184:	09 94       	ijmp

00001186 <__epilogue_restores__>:
    1186:	2a 88       	ldd	r2, Y+18	; 0x12
    1188:	39 88       	ldd	r3, Y+17	; 0x11
    118a:	48 88       	ldd	r4, Y+16	; 0x10
    118c:	5f 84       	ldd	r5, Y+15	; 0x0f
    118e:	6e 84       	ldd	r6, Y+14	; 0x0e
    1190:	7d 84       	ldd	r7, Y+13	; 0x0d
    1192:	8c 84       	ldd	r8, Y+12	; 0x0c
    1194:	9b 84       	ldd	r9, Y+11	; 0x0b
    1196:	aa 84       	ldd	r10, Y+10	; 0x0a
    1198:	b9 84       	ldd	r11, Y+9	; 0x09
    119a:	c8 84       	ldd	r12, Y+8	; 0x08
    119c:	df 80       	ldd	r13, Y+7	; 0x07
    119e:	ee 80       	ldd	r14, Y+6	; 0x06
    11a0:	fd 80       	ldd	r15, Y+5	; 0x05
    11a2:	0c 81       	ldd	r16, Y+4	; 0x04
    11a4:	1b 81       	ldd	r17, Y+3	; 0x03
    11a6:	aa 81       	ldd	r26, Y+2	; 0x02
    11a8:	b9 81       	ldd	r27, Y+1	; 0x01
    11aa:	ce 0f       	add	r28, r30
    11ac:	d1 1d       	adc	r29, r1
    11ae:	0f b6       	in	r0, 0x3f	; 63
    11b0:	f8 94       	cli
    11b2:	de bf       	out	0x3e, r29	; 62
    11b4:	0f be       	out	0x3f, r0	; 63
    11b6:	cd bf       	out	0x3d, r28	; 61
    11b8:	ed 01       	movw	r28, r26
    11ba:	08 95       	ret

000011bc <__umulhisi3>:
    11bc:	a2 9f       	mul	r26, r18
    11be:	b0 01       	movw	r22, r0
    11c0:	b3 9f       	mul	r27, r19
    11c2:	c0 01       	movw	r24, r0
    11c4:	a3 9f       	mul	r26, r19
    11c6:	01 d0       	rcall	.+2      	; 0x11ca <__umulhisi3+0xe>
    11c8:	b2 9f       	mul	r27, r18
    11ca:	70 0d       	add	r23, r0
    11cc:	81 1d       	adc	r24, r1
    11ce:	11 24       	eor	r1, r1
    11d0:	91 1d       	adc	r25, r1
    11d2:	08 95       	ret

000011d4 <_exit>:
    11d4:	f8 94       	cli

000011d6 <__stop_program>:
    11d6:	ff cf       	rjmp	.-2      	; 0x11d6 <__stop_program>
